
obj/kern/kernel:     file format elf64-x86-64


Disassembly of section .bootstrap:

0000000000100000 <_head64>:
.globl _head64
_head64:

# Save multiboot_info addr passed by bootloader
	
    movl $multiboot_info, %eax
  100000:	b8 00 70 10 00       	mov    $0x107000,%eax
    movl %ebx, (%eax)
  100005:	89 18                	mov    %ebx,(%rax)

    movw $0x1234,0x472			# warm boot	
  100007:	66 c7 05 72 04 00 00 	movw   $0x1234,0x472(%rip)        # 100482 <verify_cpu_no_longmode+0x36f>
  10000e:	34 12 
	
# Reset the stack pointer in case we didn't come from the loader
    movl $0x7c00,%esp
  100010:	bc 00 7c 00 00       	mov    $0x7c00,%esp

    call verify_cpu   #check if CPU supports long mode
  100015:	e8 cc 00 00 00       	callq  1000e6 <verify_cpu>
    movl $CR4_PAE,%eax	
  10001a:	b8 20 00 00 00       	mov    $0x20,%eax
    movl %eax,%cr4
  10001f:	0f 22 e0             	mov    %rax,%cr4

# build an early boot pml4 at physical address pml4phys 

    #initializing the page tables
    movl $pml4,%edi
  100022:	bf 00 20 10 00       	mov    $0x102000,%edi
    xorl %eax,%eax
  100027:	31 c0                	xor    %eax,%eax
    movl $((4096/4)*5),%ecx  # moving these many words to the 6 pages with 4 second level pages + 1 3rd level + 1 4th level pages 
  100029:	b9 00 14 00 00       	mov    $0x1400,%ecx
    rep stosl
  10002e:	f3 ab                	rep stos %eax,%es:(%rdi)
    # creating a 4G boot page table
    # setting the 4th level page table only the second entry needed (PML4)
    movl $pml4,%eax
  100030:	b8 00 20 10 00       	mov    $0x102000,%eax
    movl $pdpt1, %ebx
  100035:	bb 00 30 10 00       	mov    $0x103000,%ebx
    orl $PTE_P,%ebx
  10003a:	83 cb 01             	or     $0x1,%ebx
    orl $PTE_W,%ebx
  10003d:	83 cb 02             	or     $0x2,%ebx
    movl %ebx,(%eax)
  100040:	89 18                	mov    %ebx,(%rax)

    movl $pdpt2, %ebx
  100042:	bb 00 40 10 00       	mov    $0x104000,%ebx
    orl $PTE_P,%ebx
  100047:	83 cb 01             	or     $0x1,%ebx
    orl $PTE_W,%ebx
  10004a:	83 cb 02             	or     $0x2,%ebx
    movl %ebx,0x8(%eax)
  10004d:	89 58 08             	mov    %ebx,0x8(%rax)

    # setting the 3rd level page table (PDPE)
    # 4 entries (counter in ecx), point to the next four physical pages (pgdirs)
    # pgdirs in 0xa0000--0xd000
    movl $pdpt1,%edi
  100050:	bf 00 30 10 00       	mov    $0x103000,%edi
    movl $pde1,%ebx
  100055:	bb 00 50 10 00       	mov    $0x105000,%ebx
    orl $PTE_P,%ebx
  10005a:	83 cb 01             	or     $0x1,%ebx
    orl $PTE_W,%ebx
  10005d:	83 cb 02             	or     $0x2,%ebx
    movl %ebx,(%edi)
  100060:	89 1f                	mov    %ebx,(%rdi)

    movl $pdpt2,%edi
  100062:	bf 00 40 10 00       	mov    $0x104000,%edi
    movl $pde2,%ebx
  100067:	bb 00 60 10 00       	mov    $0x106000,%ebx
    orl $PTE_P,%ebx
  10006c:	83 cb 01             	or     $0x1,%ebx
    orl $PTE_W,%ebx
  10006f:	83 cb 02             	or     $0x2,%ebx
    movl %ebx,(%edi)
  100072:	89 1f                	mov    %ebx,(%rdi)
    
    # setting the pgdir so that the LA=PA
    # mapping first 1G of mem at KERNBASE
    movl $128,%ecx
  100074:	b9 80 00 00 00       	mov    $0x80,%ecx
    # Start at the end and work backwards
    #leal (pml4 + 5*0x1000 - 0x8),%edi
    movl $pde1,%edi
  100079:	bf 00 50 10 00       	mov    $0x105000,%edi
    movl $pde2,%ebx
  10007e:	bb 00 60 10 00       	mov    $0x106000,%ebx
    #64th entry - 0x8004000000
    addl $256,%ebx 
  100083:	81 c3 00 01 00 00    	add    $0x100,%ebx
    # PTE_P|PTE_W|PTE_MBZ
    movl $0x00000183,%eax
  100089:	b8 83 01 00 00       	mov    $0x183,%eax
  1:
     movl %eax,(%edi)
  10008e:	89 07                	mov    %eax,(%rdi)
     movl %eax,(%ebx)
  100090:	89 03                	mov    %eax,(%rbx)
     addl $0x8,%edi
  100092:	83 c7 08             	add    $0x8,%edi
     addl $0x8,%ebx
  100095:	83 c3 08             	add    $0x8,%ebx
     addl $0x00200000,%eax
  100098:	05 00 00 20 00       	add    $0x200000,%eax
     subl $1,%ecx
  10009d:	83 e9 01             	sub    $0x1,%ecx
     cmp $0x0,%ecx
  1000a0:	83 f9 00             	cmp    $0x0,%ecx
     jne 1b
  1000a3:	75 e9                	jne    10008e <_head64+0x8e>
 /*    subl $1,%ecx */
 /*    cmp $0x0,%ecx */
 /*    jne 1b */

    # set the cr3 register
    movl $pml4,%eax
  1000a5:	b8 00 20 10 00       	mov    $0x102000,%eax
    movl %eax, %cr3
  1000aa:	0f 22 d8             	mov    %rax,%cr3

	
    # enable the long mode in MSR
    movl $EFER_MSR,%ecx
  1000ad:	b9 80 00 00 c0       	mov    $0xc0000080,%ecx
    rdmsr
  1000b2:	0f 32                	rdmsr  
    btsl $EFER_LME,%eax
  1000b4:	0f ba e8 08          	bts    $0x8,%eax
    wrmsr
  1000b8:	0f 30                	wrmsr  
    
    # enable paging 
    movl %cr0,%eax
  1000ba:	0f 20 c0             	mov    %cr0,%rax
    orl $CR0_PE,%eax
  1000bd:	83 c8 01             	or     $0x1,%eax
    orl $CR0_PG,%eax
  1000c0:	0d 00 00 00 80       	or     $0x80000000,%eax
    orl $CR0_AM,%eax
  1000c5:	0d 00 00 04 00       	or     $0x40000,%eax
    orl $CR0_WP,%eax
  1000ca:	0d 00 00 01 00       	or     $0x10000,%eax
    orl $CR0_MP,%eax
  1000cf:	83 c8 02             	or     $0x2,%eax
    movl %eax,%cr0
  1000d2:	0f 22 c0             	mov    %rax,%cr0
    #jump to long mode with CS=0 and

    movl $gdtdesc_64,%eax
  1000d5:	b8 18 10 10 00       	mov    $0x101018,%eax
    lgdt (%eax)
  1000da:	0f 01 10             	lgdt   (%rax)
    pushl $0x8
  1000dd:	6a 08                	pushq  $0x8
    movl $_start,%eax
  1000df:	b8 0c 00 20 00       	mov    $0x20000c,%eax
    pushl %eax
  1000e4:	50                   	push   %rax

00000000001000e5 <jumpto_longmode>:
    
    .globl jumpto_longmode
    .type jumpto_longmode,@function
jumpto_longmode:
    lret
  1000e5:	cb                   	lret   

00000000001000e6 <verify_cpu>:
/*     movabs $_back_from_head64, %rax */
/*     pushq %rax */
/*     lretq */

verify_cpu:
    pushfl                   # get eflags in eax -- standardard way to check for cpuid
  1000e6:	9c                   	pushfq 
    popl %eax
  1000e7:	58                   	pop    %rax
    movl %eax,%ecx
  1000e8:	89 c1                	mov    %eax,%ecx
    xorl $0x200000, %eax
  1000ea:	35 00 00 20 00       	xor    $0x200000,%eax
    pushl %eax
  1000ef:	50                   	push   %rax
    popfl
  1000f0:	9d                   	popfq  
    pushfl
  1000f1:	9c                   	pushfq 
    popl %eax
  1000f2:	58                   	pop    %rax
    cmpl %eax,%ebx
  1000f3:	39 c3                	cmp    %eax,%ebx
    jz verify_cpu_no_longmode   # no cpuid -- no long mode
  1000f5:	74 1c                	je     100113 <verify_cpu_no_longmode>

    movl $0x0,%eax              # see if cpuid 1 is implemented
  1000f7:	b8 00 00 00 00       	mov    $0x0,%eax
    cpuid
  1000fc:	0f a2                	cpuid  
    cmpl $0x1,%eax
  1000fe:	83 f8 01             	cmp    $0x1,%eax
    jb verify_cpu_no_longmode    # cpuid 1 is not implemented
  100101:	72 10                	jb     100113 <verify_cpu_no_longmode>


    mov $0x80000001, %eax
  100103:	b8 01 00 00 80       	mov    $0x80000001,%eax
    cpuid                 
  100108:	0f a2                	cpuid  
    test $(1 << 29),%edx                 #Test if the LM-bit, is set or not.
  10010a:	f7 c2 00 00 00 20    	test   $0x20000000,%edx
    jz verify_cpu_no_longmode
  100110:	74 01                	je     100113 <verify_cpu_no_longmode>

    ret
  100112:	c3                   	retq   

0000000000100113 <verify_cpu_no_longmode>:

verify_cpu_no_longmode:
    jmp verify_cpu_no_longmode
  100113:	eb fe                	jmp    100113 <verify_cpu_no_longmode>
  100115:	66 2e 0f 1f 84 00 00 	nopw   %cs:0x0(%rax,%rax,1)
  10011c:	00 00 00 
  10011f:	66 2e 0f 1f 84 00 00 	nopw   %cs:0x0(%rax,%rax,1)
  100126:	00 00 00 
  100129:	66 2e 0f 1f 84 00 00 	nopw   %cs:0x0(%rax,%rax,1)
  100130:	00 00 00 
  100133:	66 2e 0f 1f 84 00 00 	nopw   %cs:0x0(%rax,%rax,1)
  10013a:	00 00 00 
  10013d:	66 2e 0f 1f 84 00 00 	nopw   %cs:0x0(%rax,%rax,1)
  100144:	00 00 00 
  100147:	66 2e 0f 1f 84 00 00 	nopw   %cs:0x0(%rax,%rax,1)
  10014e:	00 00 00 
  100151:	66 2e 0f 1f 84 00 00 	nopw   %cs:0x0(%rax,%rax,1)
  100158:	00 00 00 
  10015b:	66 2e 0f 1f 84 00 00 	nopw   %cs:0x0(%rax,%rax,1)
  100162:	00 00 00 
  100165:	66 2e 0f 1f 84 00 00 	nopw   %cs:0x0(%rax,%rax,1)
  10016c:	00 00 00 
  10016f:	66 2e 0f 1f 84 00 00 	nopw   %cs:0x0(%rax,%rax,1)
  100176:	00 00 00 
  100179:	66 2e 0f 1f 84 00 00 	nopw   %cs:0x0(%rax,%rax,1)
  100180:	00 00 00 
  100183:	66 2e 0f 1f 84 00 00 	nopw   %cs:0x0(%rax,%rax,1)
  10018a:	00 00 00 
  10018d:	66 2e 0f 1f 84 00 00 	nopw   %cs:0x0(%rax,%rax,1)
  100194:	00 00 00 
  100197:	66 2e 0f 1f 84 00 00 	nopw   %cs:0x0(%rax,%rax,1)
  10019e:	00 00 00 
  1001a1:	66 2e 0f 1f 84 00 00 	nopw   %cs:0x0(%rax,%rax,1)
  1001a8:	00 00 00 
  1001ab:	66 2e 0f 1f 84 00 00 	nopw   %cs:0x0(%rax,%rax,1)
  1001b2:	00 00 00 
  1001b5:	66 2e 0f 1f 84 00 00 	nopw   %cs:0x0(%rax,%rax,1)
  1001bc:	00 00 00 
  1001bf:	66 2e 0f 1f 84 00 00 	nopw   %cs:0x0(%rax,%rax,1)
  1001c6:	00 00 00 
  1001c9:	66 2e 0f 1f 84 00 00 	nopw   %cs:0x0(%rax,%rax,1)
  1001d0:	00 00 00 
  1001d3:	66 2e 0f 1f 84 00 00 	nopw   %cs:0x0(%rax,%rax,1)
  1001da:	00 00 00 
  1001dd:	66 2e 0f 1f 84 00 00 	nopw   %cs:0x0(%rax,%rax,1)
  1001e4:	00 00 00 
  1001e7:	66 2e 0f 1f 84 00 00 	nopw   %cs:0x0(%rax,%rax,1)
  1001ee:	00 00 00 
  1001f1:	66 2e 0f 1f 84 00 00 	nopw   %cs:0x0(%rax,%rax,1)
  1001f8:	00 00 00 
  1001fb:	66 2e 0f 1f 84 00 00 	nopw   %cs:0x0(%rax,%rax,1)
  100202:	00 00 00 
  100205:	66 2e 0f 1f 84 00 00 	nopw   %cs:0x0(%rax,%rax,1)
  10020c:	00 00 00 
  10020f:	66 2e 0f 1f 84 00 00 	nopw   %cs:0x0(%rax,%rax,1)
  100216:	00 00 00 
  100219:	66 2e 0f 1f 84 00 00 	nopw   %cs:0x0(%rax,%rax,1)
  100220:	00 00 00 
  100223:	66 2e 0f 1f 84 00 00 	nopw   %cs:0x0(%rax,%rax,1)
  10022a:	00 00 00 
  10022d:	66 2e 0f 1f 84 00 00 	nopw   %cs:0x0(%rax,%rax,1)
  100234:	00 00 00 
  100237:	66 2e 0f 1f 84 00 00 	nopw   %cs:0x0(%rax,%rax,1)
  10023e:	00 00 00 
  100241:	66 2e 0f 1f 84 00 00 	nopw   %cs:0x0(%rax,%rax,1)
  100248:	00 00 00 
  10024b:	66 2e 0f 1f 84 00 00 	nopw   %cs:0x0(%rax,%rax,1)
  100252:	00 00 00 
  100255:	66 2e 0f 1f 84 00 00 	nopw   %cs:0x0(%rax,%rax,1)
  10025c:	00 00 00 
  10025f:	66 2e 0f 1f 84 00 00 	nopw   %cs:0x0(%rax,%rax,1)
  100266:	00 00 00 
  100269:	66 2e 0f 1f 84 00 00 	nopw   %cs:0x0(%rax,%rax,1)
  100270:	00 00 00 
  100273:	66 2e 0f 1f 84 00 00 	nopw   %cs:0x0(%rax,%rax,1)
  10027a:	00 00 00 
  10027d:	66 2e 0f 1f 84 00 00 	nopw   %cs:0x0(%rax,%rax,1)
  100284:	00 00 00 
  100287:	66 2e 0f 1f 84 00 00 	nopw   %cs:0x0(%rax,%rax,1)
  10028e:	00 00 00 
  100291:	66 2e 0f 1f 84 00 00 	nopw   %cs:0x0(%rax,%rax,1)
  100298:	00 00 00 
  10029b:	66 2e 0f 1f 84 00 00 	nopw   %cs:0x0(%rax,%rax,1)
  1002a2:	00 00 00 
  1002a5:	66 2e 0f 1f 84 00 00 	nopw   %cs:0x0(%rax,%rax,1)
  1002ac:	00 00 00 
  1002af:	66 2e 0f 1f 84 00 00 	nopw   %cs:0x0(%rax,%rax,1)
  1002b6:	00 00 00 
  1002b9:	66 2e 0f 1f 84 00 00 	nopw   %cs:0x0(%rax,%rax,1)
  1002c0:	00 00 00 
  1002c3:	66 2e 0f 1f 84 00 00 	nopw   %cs:0x0(%rax,%rax,1)
  1002ca:	00 00 00 
  1002cd:	66 2e 0f 1f 84 00 00 	nopw   %cs:0x0(%rax,%rax,1)
  1002d4:	00 00 00 
  1002d7:	66 2e 0f 1f 84 00 00 	nopw   %cs:0x0(%rax,%rax,1)
  1002de:	00 00 00 
  1002e1:	66 2e 0f 1f 84 00 00 	nopw   %cs:0x0(%rax,%rax,1)
  1002e8:	00 00 00 
  1002eb:	66 2e 0f 1f 84 00 00 	nopw   %cs:0x0(%rax,%rax,1)
  1002f2:	00 00 00 
  1002f5:	66 2e 0f 1f 84 00 00 	nopw   %cs:0x0(%rax,%rax,1)
  1002fc:	00 00 00 
  1002ff:	66 2e 0f 1f 84 00 00 	nopw   %cs:0x0(%rax,%rax,1)
  100306:	00 00 00 
  100309:	66 2e 0f 1f 84 00 00 	nopw   %cs:0x0(%rax,%rax,1)
  100310:	00 00 00 
  100313:	66 2e 0f 1f 84 00 00 	nopw   %cs:0x0(%rax,%rax,1)
  10031a:	00 00 00 
  10031d:	66 2e 0f 1f 84 00 00 	nopw   %cs:0x0(%rax,%rax,1)
  100324:	00 00 00 
  100327:	66 2e 0f 1f 84 00 00 	nopw   %cs:0x0(%rax,%rax,1)
  10032e:	00 00 00 
  100331:	66 2e 0f 1f 84 00 00 	nopw   %cs:0x0(%rax,%rax,1)
  100338:	00 00 00 
  10033b:	66 2e 0f 1f 84 00 00 	nopw   %cs:0x0(%rax,%rax,1)
  100342:	00 00 00 
  100345:	66 2e 0f 1f 84 00 00 	nopw   %cs:0x0(%rax,%rax,1)
  10034c:	00 00 00 
  10034f:	66 2e 0f 1f 84 00 00 	nopw   %cs:0x0(%rax,%rax,1)
  100356:	00 00 00 
  100359:	66 2e 0f 1f 84 00 00 	nopw   %cs:0x0(%rax,%rax,1)
  100360:	00 00 00 
  100363:	66 2e 0f 1f 84 00 00 	nopw   %cs:0x0(%rax,%rax,1)
  10036a:	00 00 00 
  10036d:	66 2e 0f 1f 84 00 00 	nopw   %cs:0x0(%rax,%rax,1)
  100374:	00 00 00 
  100377:	66 2e 0f 1f 84 00 00 	nopw   %cs:0x0(%rax,%rax,1)
  10037e:	00 00 00 
  100381:	66 2e 0f 1f 84 00 00 	nopw   %cs:0x0(%rax,%rax,1)
  100388:	00 00 00 
  10038b:	66 2e 0f 1f 84 00 00 	nopw   %cs:0x0(%rax,%rax,1)
  100392:	00 00 00 
  100395:	66 2e 0f 1f 84 00 00 	nopw   %cs:0x0(%rax,%rax,1)
  10039c:	00 00 00 
  10039f:	66 2e 0f 1f 84 00 00 	nopw   %cs:0x0(%rax,%rax,1)
  1003a6:	00 00 00 
  1003a9:	66 2e 0f 1f 84 00 00 	nopw   %cs:0x0(%rax,%rax,1)
  1003b0:	00 00 00 
  1003b3:	66 2e 0f 1f 84 00 00 	nopw   %cs:0x0(%rax,%rax,1)
  1003ba:	00 00 00 
  1003bd:	66 2e 0f 1f 84 00 00 	nopw   %cs:0x0(%rax,%rax,1)
  1003c4:	00 00 00 
  1003c7:	66 2e 0f 1f 84 00 00 	nopw   %cs:0x0(%rax,%rax,1)
  1003ce:	00 00 00 
  1003d1:	66 2e 0f 1f 84 00 00 	nopw   %cs:0x0(%rax,%rax,1)
  1003d8:	00 00 00 
  1003db:	66 2e 0f 1f 84 00 00 	nopw   %cs:0x0(%rax,%rax,1)
  1003e2:	00 00 00 
  1003e5:	66 2e 0f 1f 84 00 00 	nopw   %cs:0x0(%rax,%rax,1)
  1003ec:	00 00 00 
  1003ef:	66 2e 0f 1f 84 00 00 	nopw   %cs:0x0(%rax,%rax,1)
  1003f6:	00 00 00 
  1003f9:	66 2e 0f 1f 84 00 00 	nopw   %cs:0x0(%rax,%rax,1)
  100400:	00 00 00 
  100403:	66 2e 0f 1f 84 00 00 	nopw   %cs:0x0(%rax,%rax,1)
  10040a:	00 00 00 
  10040d:	66 2e 0f 1f 84 00 00 	nopw   %cs:0x0(%rax,%rax,1)
  100414:	00 00 00 
  100417:	66 2e 0f 1f 84 00 00 	nopw   %cs:0x0(%rax,%rax,1)
  10041e:	00 00 00 
  100421:	66 2e 0f 1f 84 00 00 	nopw   %cs:0x0(%rax,%rax,1)
  100428:	00 00 00 
  10042b:	66 2e 0f 1f 84 00 00 	nopw   %cs:0x0(%rax,%rax,1)
  100432:	00 00 00 
  100435:	66 2e 0f 1f 84 00 00 	nopw   %cs:0x0(%rax,%rax,1)
  10043c:	00 00 00 
  10043f:	66 2e 0f 1f 84 00 00 	nopw   %cs:0x0(%rax,%rax,1)
  100446:	00 00 00 
  100449:	66 2e 0f 1f 84 00 00 	nopw   %cs:0x0(%rax,%rax,1)
  100450:	00 00 00 
  100453:	66 2e 0f 1f 84 00 00 	nopw   %cs:0x0(%rax,%rax,1)
  10045a:	00 00 00 
  10045d:	66 2e 0f 1f 84 00 00 	nopw   %cs:0x0(%rax,%rax,1)
  100464:	00 00 00 
  100467:	66 2e 0f 1f 84 00 00 	nopw   %cs:0x0(%rax,%rax,1)
  10046e:	00 00 00 
  100471:	66 2e 0f 1f 84 00 00 	nopw   %cs:0x0(%rax,%rax,1)
  100478:	00 00 00 
  10047b:	66 2e 0f 1f 84 00 00 	nopw   %cs:0x0(%rax,%rax,1)
  100482:	00 00 00 
  100485:	66 2e 0f 1f 84 00 00 	nopw   %cs:0x0(%rax,%rax,1)
  10048c:	00 00 00 
  10048f:	66 2e 0f 1f 84 00 00 	nopw   %cs:0x0(%rax,%rax,1)
  100496:	00 00 00 
  100499:	66 2e 0f 1f 84 00 00 	nopw   %cs:0x0(%rax,%rax,1)
  1004a0:	00 00 00 
  1004a3:	66 2e 0f 1f 84 00 00 	nopw   %cs:0x0(%rax,%rax,1)
  1004aa:	00 00 00 
  1004ad:	66 2e 0f 1f 84 00 00 	nopw   %cs:0x0(%rax,%rax,1)
  1004b4:	00 00 00 
  1004b7:	66 2e 0f 1f 84 00 00 	nopw   %cs:0x0(%rax,%rax,1)
  1004be:	00 00 00 
  1004c1:	66 2e 0f 1f 84 00 00 	nopw   %cs:0x0(%rax,%rax,1)
  1004c8:	00 00 00 
  1004cb:	66 2e 0f 1f 84 00 00 	nopw   %cs:0x0(%rax,%rax,1)
  1004d2:	00 00 00 
  1004d5:	66 2e 0f 1f 84 00 00 	nopw   %cs:0x0(%rax,%rax,1)
  1004dc:	00 00 00 
  1004df:	66 2e 0f 1f 84 00 00 	nopw   %cs:0x0(%rax,%rax,1)
  1004e6:	00 00 00 
  1004e9:	66 2e 0f 1f 84 00 00 	nopw   %cs:0x0(%rax,%rax,1)
  1004f0:	00 00 00 
  1004f3:	66 2e 0f 1f 84 00 00 	nopw   %cs:0x0(%rax,%rax,1)
  1004fa:	00 00 00 
  1004fd:	66 2e 0f 1f 84 00 00 	nopw   %cs:0x0(%rax,%rax,1)
  100504:	00 00 00 
  100507:	66 2e 0f 1f 84 00 00 	nopw   %cs:0x0(%rax,%rax,1)
  10050e:	00 00 00 
  100511:	66 2e 0f 1f 84 00 00 	nopw   %cs:0x0(%rax,%rax,1)
  100518:	00 00 00 
  10051b:	66 2e 0f 1f 84 00 00 	nopw   %cs:0x0(%rax,%rax,1)
  100522:	00 00 00 
  100525:	66 2e 0f 1f 84 00 00 	nopw   %cs:0x0(%rax,%rax,1)
  10052c:	00 00 00 
  10052f:	66 2e 0f 1f 84 00 00 	nopw   %cs:0x0(%rax,%rax,1)
  100536:	00 00 00 
  100539:	66 2e 0f 1f 84 00 00 	nopw   %cs:0x0(%rax,%rax,1)
  100540:	00 00 00 
  100543:	66 2e 0f 1f 84 00 00 	nopw   %cs:0x0(%rax,%rax,1)
  10054a:	00 00 00 
  10054d:	66 2e 0f 1f 84 00 00 	nopw   %cs:0x0(%rax,%rax,1)
  100554:	00 00 00 
  100557:	66 2e 0f 1f 84 00 00 	nopw   %cs:0x0(%rax,%rax,1)
  10055e:	00 00 00 
  100561:	66 2e 0f 1f 84 00 00 	nopw   %cs:0x0(%rax,%rax,1)
  100568:	00 00 00 
  10056b:	66 2e 0f 1f 84 00 00 	nopw   %cs:0x0(%rax,%rax,1)
  100572:	00 00 00 
  100575:	66 2e 0f 1f 84 00 00 	nopw   %cs:0x0(%rax,%rax,1)
  10057c:	00 00 00 
  10057f:	66 2e 0f 1f 84 00 00 	nopw   %cs:0x0(%rax,%rax,1)
  100586:	00 00 00 
  100589:	66 2e 0f 1f 84 00 00 	nopw   %cs:0x0(%rax,%rax,1)
  100590:	00 00 00 
  100593:	66 2e 0f 1f 84 00 00 	nopw   %cs:0x0(%rax,%rax,1)
  10059a:	00 00 00 
  10059d:	66 2e 0f 1f 84 00 00 	nopw   %cs:0x0(%rax,%rax,1)
  1005a4:	00 00 00 
  1005a7:	66 2e 0f 1f 84 00 00 	nopw   %cs:0x0(%rax,%rax,1)
  1005ae:	00 00 00 
  1005b1:	66 2e 0f 1f 84 00 00 	nopw   %cs:0x0(%rax,%rax,1)
  1005b8:	00 00 00 
  1005bb:	66 2e 0f 1f 84 00 00 	nopw   %cs:0x0(%rax,%rax,1)
  1005c2:	00 00 00 
  1005c5:	66 2e 0f 1f 84 00 00 	nopw   %cs:0x0(%rax,%rax,1)
  1005cc:	00 00 00 
  1005cf:	66 2e 0f 1f 84 00 00 	nopw   %cs:0x0(%rax,%rax,1)
  1005d6:	00 00 00 
  1005d9:	66 2e 0f 1f 84 00 00 	nopw   %cs:0x0(%rax,%rax,1)
  1005e0:	00 00 00 
  1005e3:	66 2e 0f 1f 84 00 00 	nopw   %cs:0x0(%rax,%rax,1)
  1005ea:	00 00 00 
  1005ed:	66 2e 0f 1f 84 00 00 	nopw   %cs:0x0(%rax,%rax,1)
  1005f4:	00 00 00 
  1005f7:	66 2e 0f 1f 84 00 00 	nopw   %cs:0x0(%rax,%rax,1)
  1005fe:	00 00 00 
  100601:	66 2e 0f 1f 84 00 00 	nopw   %cs:0x0(%rax,%rax,1)
  100608:	00 00 00 
  10060b:	66 2e 0f 1f 84 00 00 	nopw   %cs:0x0(%rax,%rax,1)
  100612:	00 00 00 
  100615:	66 2e 0f 1f 84 00 00 	nopw   %cs:0x0(%rax,%rax,1)
  10061c:	00 00 00 
  10061f:	66 2e 0f 1f 84 00 00 	nopw   %cs:0x0(%rax,%rax,1)
  100626:	00 00 00 
  100629:	66 2e 0f 1f 84 00 00 	nopw   %cs:0x0(%rax,%rax,1)
  100630:	00 00 00 
  100633:	66 2e 0f 1f 84 00 00 	nopw   %cs:0x0(%rax,%rax,1)
  10063a:	00 00 00 
  10063d:	66 2e 0f 1f 84 00 00 	nopw   %cs:0x0(%rax,%rax,1)
  100644:	00 00 00 
  100647:	66 2e 0f 1f 84 00 00 	nopw   %cs:0x0(%rax,%rax,1)
  10064e:	00 00 00 
  100651:	66 2e 0f 1f 84 00 00 	nopw   %cs:0x0(%rax,%rax,1)
  100658:	00 00 00 
  10065b:	66 2e 0f 1f 84 00 00 	nopw   %cs:0x0(%rax,%rax,1)
  100662:	00 00 00 
  100665:	66 2e 0f 1f 84 00 00 	nopw   %cs:0x0(%rax,%rax,1)
  10066c:	00 00 00 
  10066f:	66 2e 0f 1f 84 00 00 	nopw   %cs:0x0(%rax,%rax,1)
  100676:	00 00 00 
  100679:	66 2e 0f 1f 84 00 00 	nopw   %cs:0x0(%rax,%rax,1)
  100680:	00 00 00 
  100683:	66 2e 0f 1f 84 00 00 	nopw   %cs:0x0(%rax,%rax,1)
  10068a:	00 00 00 
  10068d:	66 2e 0f 1f 84 00 00 	nopw   %cs:0x0(%rax,%rax,1)
  100694:	00 00 00 
  100697:	66 2e 0f 1f 84 00 00 	nopw   %cs:0x0(%rax,%rax,1)
  10069e:	00 00 00 
  1006a1:	66 2e 0f 1f 84 00 00 	nopw   %cs:0x0(%rax,%rax,1)
  1006a8:	00 00 00 
  1006ab:	66 2e 0f 1f 84 00 00 	nopw   %cs:0x0(%rax,%rax,1)
  1006b2:	00 00 00 
  1006b5:	66 2e 0f 1f 84 00 00 	nopw   %cs:0x0(%rax,%rax,1)
  1006bc:	00 00 00 
  1006bf:	66 2e 0f 1f 84 00 00 	nopw   %cs:0x0(%rax,%rax,1)
  1006c6:	00 00 00 
  1006c9:	66 2e 0f 1f 84 00 00 	nopw   %cs:0x0(%rax,%rax,1)
  1006d0:	00 00 00 
  1006d3:	66 2e 0f 1f 84 00 00 	nopw   %cs:0x0(%rax,%rax,1)
  1006da:	00 00 00 
  1006dd:	66 2e 0f 1f 84 00 00 	nopw   %cs:0x0(%rax,%rax,1)
  1006e4:	00 00 00 
  1006e7:	66 2e 0f 1f 84 00 00 	nopw   %cs:0x0(%rax,%rax,1)
  1006ee:	00 00 00 
  1006f1:	66 2e 0f 1f 84 00 00 	nopw   %cs:0x0(%rax,%rax,1)
  1006f8:	00 00 00 
  1006fb:	66 2e 0f 1f 84 00 00 	nopw   %cs:0x0(%rax,%rax,1)
  100702:	00 00 00 
  100705:	66 2e 0f 1f 84 00 00 	nopw   %cs:0x0(%rax,%rax,1)
  10070c:	00 00 00 
  10070f:	66 2e 0f 1f 84 00 00 	nopw   %cs:0x0(%rax,%rax,1)
  100716:	00 00 00 
  100719:	66 2e 0f 1f 84 00 00 	nopw   %cs:0x0(%rax,%rax,1)
  100720:	00 00 00 
  100723:	66 2e 0f 1f 84 00 00 	nopw   %cs:0x0(%rax,%rax,1)
  10072a:	00 00 00 
  10072d:	66 2e 0f 1f 84 00 00 	nopw   %cs:0x0(%rax,%rax,1)
  100734:	00 00 00 
  100737:	66 2e 0f 1f 84 00 00 	nopw   %cs:0x0(%rax,%rax,1)
  10073e:	00 00 00 
  100741:	66 2e 0f 1f 84 00 00 	nopw   %cs:0x0(%rax,%rax,1)
  100748:	00 00 00 
  10074b:	66 2e 0f 1f 84 00 00 	nopw   %cs:0x0(%rax,%rax,1)
  100752:	00 00 00 
  100755:	66 2e 0f 1f 84 00 00 	nopw   %cs:0x0(%rax,%rax,1)
  10075c:	00 00 00 
  10075f:	66 2e 0f 1f 84 00 00 	nopw   %cs:0x0(%rax,%rax,1)
  100766:	00 00 00 
  100769:	66 2e 0f 1f 84 00 00 	nopw   %cs:0x0(%rax,%rax,1)
  100770:	00 00 00 
  100773:	66 2e 0f 1f 84 00 00 	nopw   %cs:0x0(%rax,%rax,1)
  10077a:	00 00 00 
  10077d:	66 2e 0f 1f 84 00 00 	nopw   %cs:0x0(%rax,%rax,1)
  100784:	00 00 00 
  100787:	66 2e 0f 1f 84 00 00 	nopw   %cs:0x0(%rax,%rax,1)
  10078e:	00 00 00 
  100791:	66 2e 0f 1f 84 00 00 	nopw   %cs:0x0(%rax,%rax,1)
  100798:	00 00 00 
  10079b:	66 2e 0f 1f 84 00 00 	nopw   %cs:0x0(%rax,%rax,1)
  1007a2:	00 00 00 
  1007a5:	66 2e 0f 1f 84 00 00 	nopw   %cs:0x0(%rax,%rax,1)
  1007ac:	00 00 00 
  1007af:	66 2e 0f 1f 84 00 00 	nopw   %cs:0x0(%rax,%rax,1)
  1007b6:	00 00 00 
  1007b9:	66 2e 0f 1f 84 00 00 	nopw   %cs:0x0(%rax,%rax,1)
  1007c0:	00 00 00 
  1007c3:	66 2e 0f 1f 84 00 00 	nopw   %cs:0x0(%rax,%rax,1)
  1007ca:	00 00 00 
  1007cd:	66 2e 0f 1f 84 00 00 	nopw   %cs:0x0(%rax,%rax,1)
  1007d4:	00 00 00 
  1007d7:	66 2e 0f 1f 84 00 00 	nopw   %cs:0x0(%rax,%rax,1)
  1007de:	00 00 00 
  1007e1:	66 2e 0f 1f 84 00 00 	nopw   %cs:0x0(%rax,%rax,1)
  1007e8:	00 00 00 
  1007eb:	66 2e 0f 1f 84 00 00 	nopw   %cs:0x0(%rax,%rax,1)
  1007f2:	00 00 00 
  1007f5:	66 2e 0f 1f 84 00 00 	nopw   %cs:0x0(%rax,%rax,1)
  1007fc:	00 00 00 
  1007ff:	66 2e 0f 1f 84 00 00 	nopw   %cs:0x0(%rax,%rax,1)
  100806:	00 00 00 
  100809:	66 2e 0f 1f 84 00 00 	nopw   %cs:0x0(%rax,%rax,1)
  100810:	00 00 00 
  100813:	66 2e 0f 1f 84 00 00 	nopw   %cs:0x0(%rax,%rax,1)
  10081a:	00 00 00 
  10081d:	66 2e 0f 1f 84 00 00 	nopw   %cs:0x0(%rax,%rax,1)
  100824:	00 00 00 
  100827:	66 2e 0f 1f 84 00 00 	nopw   %cs:0x0(%rax,%rax,1)
  10082e:	00 00 00 
  100831:	66 2e 0f 1f 84 00 00 	nopw   %cs:0x0(%rax,%rax,1)
  100838:	00 00 00 
  10083b:	66 2e 0f 1f 84 00 00 	nopw   %cs:0x0(%rax,%rax,1)
  100842:	00 00 00 
  100845:	66 2e 0f 1f 84 00 00 	nopw   %cs:0x0(%rax,%rax,1)
  10084c:	00 00 00 
  10084f:	66 2e 0f 1f 84 00 00 	nopw   %cs:0x0(%rax,%rax,1)
  100856:	00 00 00 
  100859:	66 2e 0f 1f 84 00 00 	nopw   %cs:0x0(%rax,%rax,1)
  100860:	00 00 00 
  100863:	66 2e 0f 1f 84 00 00 	nopw   %cs:0x0(%rax,%rax,1)
  10086a:	00 00 00 
  10086d:	66 2e 0f 1f 84 00 00 	nopw   %cs:0x0(%rax,%rax,1)
  100874:	00 00 00 
  100877:	66 2e 0f 1f 84 00 00 	nopw   %cs:0x0(%rax,%rax,1)
  10087e:	00 00 00 
  100881:	66 2e 0f 1f 84 00 00 	nopw   %cs:0x0(%rax,%rax,1)
  100888:	00 00 00 
  10088b:	66 2e 0f 1f 84 00 00 	nopw   %cs:0x0(%rax,%rax,1)
  100892:	00 00 00 
  100895:	66 2e 0f 1f 84 00 00 	nopw   %cs:0x0(%rax,%rax,1)
  10089c:	00 00 00 
  10089f:	66 2e 0f 1f 84 00 00 	nopw   %cs:0x0(%rax,%rax,1)
  1008a6:	00 00 00 
  1008a9:	66 2e 0f 1f 84 00 00 	nopw   %cs:0x0(%rax,%rax,1)
  1008b0:	00 00 00 
  1008b3:	66 2e 0f 1f 84 00 00 	nopw   %cs:0x0(%rax,%rax,1)
  1008ba:	00 00 00 
  1008bd:	66 2e 0f 1f 84 00 00 	nopw   %cs:0x0(%rax,%rax,1)
  1008c4:	00 00 00 
  1008c7:	66 2e 0f 1f 84 00 00 	nopw   %cs:0x0(%rax,%rax,1)
  1008ce:	00 00 00 
  1008d1:	66 2e 0f 1f 84 00 00 	nopw   %cs:0x0(%rax,%rax,1)
  1008d8:	00 00 00 
  1008db:	66 2e 0f 1f 84 00 00 	nopw   %cs:0x0(%rax,%rax,1)
  1008e2:	00 00 00 
  1008e5:	66 2e 0f 1f 84 00 00 	nopw   %cs:0x0(%rax,%rax,1)
  1008ec:	00 00 00 
  1008ef:	66 2e 0f 1f 84 00 00 	nopw   %cs:0x0(%rax,%rax,1)
  1008f6:	00 00 00 
  1008f9:	66 2e 0f 1f 84 00 00 	nopw   %cs:0x0(%rax,%rax,1)
  100900:	00 00 00 
  100903:	66 2e 0f 1f 84 00 00 	nopw   %cs:0x0(%rax,%rax,1)
  10090a:	00 00 00 
  10090d:	66 2e 0f 1f 84 00 00 	nopw   %cs:0x0(%rax,%rax,1)
  100914:	00 00 00 
  100917:	66 2e 0f 1f 84 00 00 	nopw   %cs:0x0(%rax,%rax,1)
  10091e:	00 00 00 
  100921:	66 2e 0f 1f 84 00 00 	nopw   %cs:0x0(%rax,%rax,1)
  100928:	00 00 00 
  10092b:	66 2e 0f 1f 84 00 00 	nopw   %cs:0x0(%rax,%rax,1)
  100932:	00 00 00 
  100935:	66 2e 0f 1f 84 00 00 	nopw   %cs:0x0(%rax,%rax,1)
  10093c:	00 00 00 
  10093f:	66 2e 0f 1f 84 00 00 	nopw   %cs:0x0(%rax,%rax,1)
  100946:	00 00 00 
  100949:	66 2e 0f 1f 84 00 00 	nopw   %cs:0x0(%rax,%rax,1)
  100950:	00 00 00 
  100953:	66 2e 0f 1f 84 00 00 	nopw   %cs:0x0(%rax,%rax,1)
  10095a:	00 00 00 
  10095d:	66 2e 0f 1f 84 00 00 	nopw   %cs:0x0(%rax,%rax,1)
  100964:	00 00 00 
  100967:	66 2e 0f 1f 84 00 00 	nopw   %cs:0x0(%rax,%rax,1)
  10096e:	00 00 00 
  100971:	66 2e 0f 1f 84 00 00 	nopw   %cs:0x0(%rax,%rax,1)
  100978:	00 00 00 
  10097b:	66 2e 0f 1f 84 00 00 	nopw   %cs:0x0(%rax,%rax,1)
  100982:	00 00 00 
  100985:	66 2e 0f 1f 84 00 00 	nopw   %cs:0x0(%rax,%rax,1)
  10098c:	00 00 00 
  10098f:	66 2e 0f 1f 84 00 00 	nopw   %cs:0x0(%rax,%rax,1)
  100996:	00 00 00 
  100999:	66 2e 0f 1f 84 00 00 	nopw   %cs:0x0(%rax,%rax,1)
  1009a0:	00 00 00 
  1009a3:	66 2e 0f 1f 84 00 00 	nopw   %cs:0x0(%rax,%rax,1)
  1009aa:	00 00 00 
  1009ad:	66 2e 0f 1f 84 00 00 	nopw   %cs:0x0(%rax,%rax,1)
  1009b4:	00 00 00 
  1009b7:	66 2e 0f 1f 84 00 00 	nopw   %cs:0x0(%rax,%rax,1)
  1009be:	00 00 00 
  1009c1:	66 2e 0f 1f 84 00 00 	nopw   %cs:0x0(%rax,%rax,1)
  1009c8:	00 00 00 
  1009cb:	66 2e 0f 1f 84 00 00 	nopw   %cs:0x0(%rax,%rax,1)
  1009d2:	00 00 00 
  1009d5:	66 2e 0f 1f 84 00 00 	nopw   %cs:0x0(%rax,%rax,1)
  1009dc:	00 00 00 
  1009df:	66 2e 0f 1f 84 00 00 	nopw   %cs:0x0(%rax,%rax,1)
  1009e6:	00 00 00 
  1009e9:	66 2e 0f 1f 84 00 00 	nopw   %cs:0x0(%rax,%rax,1)
  1009f0:	00 00 00 
  1009f3:	66 2e 0f 1f 84 00 00 	nopw   %cs:0x0(%rax,%rax,1)
  1009fa:	00 00 00 
  1009fd:	66 2e 0f 1f 84 00 00 	nopw   %cs:0x0(%rax,%rax,1)
  100a04:	00 00 00 
  100a07:	66 2e 0f 1f 84 00 00 	nopw   %cs:0x0(%rax,%rax,1)
  100a0e:	00 00 00 
  100a11:	66 2e 0f 1f 84 00 00 	nopw   %cs:0x0(%rax,%rax,1)
  100a18:	00 00 00 
  100a1b:	66 2e 0f 1f 84 00 00 	nopw   %cs:0x0(%rax,%rax,1)
  100a22:	00 00 00 
  100a25:	66 2e 0f 1f 84 00 00 	nopw   %cs:0x0(%rax,%rax,1)
  100a2c:	00 00 00 
  100a2f:	66 2e 0f 1f 84 00 00 	nopw   %cs:0x0(%rax,%rax,1)
  100a36:	00 00 00 
  100a39:	66 2e 0f 1f 84 00 00 	nopw   %cs:0x0(%rax,%rax,1)
  100a40:	00 00 00 
  100a43:	66 2e 0f 1f 84 00 00 	nopw   %cs:0x0(%rax,%rax,1)
  100a4a:	00 00 00 
  100a4d:	66 2e 0f 1f 84 00 00 	nopw   %cs:0x0(%rax,%rax,1)
  100a54:	00 00 00 
  100a57:	66 2e 0f 1f 84 00 00 	nopw   %cs:0x0(%rax,%rax,1)
  100a5e:	00 00 00 
  100a61:	66 2e 0f 1f 84 00 00 	nopw   %cs:0x0(%rax,%rax,1)
  100a68:	00 00 00 
  100a6b:	66 2e 0f 1f 84 00 00 	nopw   %cs:0x0(%rax,%rax,1)
  100a72:	00 00 00 
  100a75:	66 2e 0f 1f 84 00 00 	nopw   %cs:0x0(%rax,%rax,1)
  100a7c:	00 00 00 
  100a7f:	66 2e 0f 1f 84 00 00 	nopw   %cs:0x0(%rax,%rax,1)
  100a86:	00 00 00 
  100a89:	66 2e 0f 1f 84 00 00 	nopw   %cs:0x0(%rax,%rax,1)
  100a90:	00 00 00 
  100a93:	66 2e 0f 1f 84 00 00 	nopw   %cs:0x0(%rax,%rax,1)
  100a9a:	00 00 00 
  100a9d:	66 2e 0f 1f 84 00 00 	nopw   %cs:0x0(%rax,%rax,1)
  100aa4:	00 00 00 
  100aa7:	66 2e 0f 1f 84 00 00 	nopw   %cs:0x0(%rax,%rax,1)
  100aae:	00 00 00 
  100ab1:	66 2e 0f 1f 84 00 00 	nopw   %cs:0x0(%rax,%rax,1)
  100ab8:	00 00 00 
  100abb:	66 2e 0f 1f 84 00 00 	nopw   %cs:0x0(%rax,%rax,1)
  100ac2:	00 00 00 
  100ac5:	66 2e 0f 1f 84 00 00 	nopw   %cs:0x0(%rax,%rax,1)
  100acc:	00 00 00 
  100acf:	66 2e 0f 1f 84 00 00 	nopw   %cs:0x0(%rax,%rax,1)
  100ad6:	00 00 00 
  100ad9:	66 2e 0f 1f 84 00 00 	nopw   %cs:0x0(%rax,%rax,1)
  100ae0:	00 00 00 
  100ae3:	66 2e 0f 1f 84 00 00 	nopw   %cs:0x0(%rax,%rax,1)
  100aea:	00 00 00 
  100aed:	66 2e 0f 1f 84 00 00 	nopw   %cs:0x0(%rax,%rax,1)
  100af4:	00 00 00 
  100af7:	66 2e 0f 1f 84 00 00 	nopw   %cs:0x0(%rax,%rax,1)
  100afe:	00 00 00 
  100b01:	66 2e 0f 1f 84 00 00 	nopw   %cs:0x0(%rax,%rax,1)
  100b08:	00 00 00 
  100b0b:	66 2e 0f 1f 84 00 00 	nopw   %cs:0x0(%rax,%rax,1)
  100b12:	00 00 00 
  100b15:	66 2e 0f 1f 84 00 00 	nopw   %cs:0x0(%rax,%rax,1)
  100b1c:	00 00 00 
  100b1f:	66 2e 0f 1f 84 00 00 	nopw   %cs:0x0(%rax,%rax,1)
  100b26:	00 00 00 
  100b29:	66 2e 0f 1f 84 00 00 	nopw   %cs:0x0(%rax,%rax,1)
  100b30:	00 00 00 
  100b33:	66 2e 0f 1f 84 00 00 	nopw   %cs:0x0(%rax,%rax,1)
  100b3a:	00 00 00 
  100b3d:	66 2e 0f 1f 84 00 00 	nopw   %cs:0x0(%rax,%rax,1)
  100b44:	00 00 00 
  100b47:	66 2e 0f 1f 84 00 00 	nopw   %cs:0x0(%rax,%rax,1)
  100b4e:	00 00 00 
  100b51:	66 2e 0f 1f 84 00 00 	nopw   %cs:0x0(%rax,%rax,1)
  100b58:	00 00 00 
  100b5b:	66 2e 0f 1f 84 00 00 	nopw   %cs:0x0(%rax,%rax,1)
  100b62:	00 00 00 
  100b65:	66 2e 0f 1f 84 00 00 	nopw   %cs:0x0(%rax,%rax,1)
  100b6c:	00 00 00 
  100b6f:	66 2e 0f 1f 84 00 00 	nopw   %cs:0x0(%rax,%rax,1)
  100b76:	00 00 00 
  100b79:	66 2e 0f 1f 84 00 00 	nopw   %cs:0x0(%rax,%rax,1)
  100b80:	00 00 00 
  100b83:	66 2e 0f 1f 84 00 00 	nopw   %cs:0x0(%rax,%rax,1)
  100b8a:	00 00 00 
  100b8d:	66 2e 0f 1f 84 00 00 	nopw   %cs:0x0(%rax,%rax,1)
  100b94:	00 00 00 
  100b97:	66 2e 0f 1f 84 00 00 	nopw   %cs:0x0(%rax,%rax,1)
  100b9e:	00 00 00 
  100ba1:	66 2e 0f 1f 84 00 00 	nopw   %cs:0x0(%rax,%rax,1)
  100ba8:	00 00 00 
  100bab:	66 2e 0f 1f 84 00 00 	nopw   %cs:0x0(%rax,%rax,1)
  100bb2:	00 00 00 
  100bb5:	66 2e 0f 1f 84 00 00 	nopw   %cs:0x0(%rax,%rax,1)
  100bbc:	00 00 00 
  100bbf:	66 2e 0f 1f 84 00 00 	nopw   %cs:0x0(%rax,%rax,1)
  100bc6:	00 00 00 
  100bc9:	66 2e 0f 1f 84 00 00 	nopw   %cs:0x0(%rax,%rax,1)
  100bd0:	00 00 00 
  100bd3:	66 2e 0f 1f 84 00 00 	nopw   %cs:0x0(%rax,%rax,1)
  100bda:	00 00 00 
  100bdd:	66 2e 0f 1f 84 00 00 	nopw   %cs:0x0(%rax,%rax,1)
  100be4:	00 00 00 
  100be7:	66 2e 0f 1f 84 00 00 	nopw   %cs:0x0(%rax,%rax,1)
  100bee:	00 00 00 
  100bf1:	66 2e 0f 1f 84 00 00 	nopw   %cs:0x0(%rax,%rax,1)
  100bf8:	00 00 00 
  100bfb:	66 2e 0f 1f 84 00 00 	nopw   %cs:0x0(%rax,%rax,1)
  100c02:	00 00 00 
  100c05:	66 2e 0f 1f 84 00 00 	nopw   %cs:0x0(%rax,%rax,1)
  100c0c:	00 00 00 
  100c0f:	66 2e 0f 1f 84 00 00 	nopw   %cs:0x0(%rax,%rax,1)
  100c16:	00 00 00 
  100c19:	66 2e 0f 1f 84 00 00 	nopw   %cs:0x0(%rax,%rax,1)
  100c20:	00 00 00 
  100c23:	66 2e 0f 1f 84 00 00 	nopw   %cs:0x0(%rax,%rax,1)
  100c2a:	00 00 00 
  100c2d:	66 2e 0f 1f 84 00 00 	nopw   %cs:0x0(%rax,%rax,1)
  100c34:	00 00 00 
  100c37:	66 2e 0f 1f 84 00 00 	nopw   %cs:0x0(%rax,%rax,1)
  100c3e:	00 00 00 
  100c41:	66 2e 0f 1f 84 00 00 	nopw   %cs:0x0(%rax,%rax,1)
  100c48:	00 00 00 
  100c4b:	66 2e 0f 1f 84 00 00 	nopw   %cs:0x0(%rax,%rax,1)
  100c52:	00 00 00 
  100c55:	66 2e 0f 1f 84 00 00 	nopw   %cs:0x0(%rax,%rax,1)
  100c5c:	00 00 00 
  100c5f:	66 2e 0f 1f 84 00 00 	nopw   %cs:0x0(%rax,%rax,1)
  100c66:	00 00 00 
  100c69:	66 2e 0f 1f 84 00 00 	nopw   %cs:0x0(%rax,%rax,1)
  100c70:	00 00 00 
  100c73:	66 2e 0f 1f 84 00 00 	nopw   %cs:0x0(%rax,%rax,1)
  100c7a:	00 00 00 
  100c7d:	66 2e 0f 1f 84 00 00 	nopw   %cs:0x0(%rax,%rax,1)
  100c84:	00 00 00 
  100c87:	66 2e 0f 1f 84 00 00 	nopw   %cs:0x0(%rax,%rax,1)
  100c8e:	00 00 00 
  100c91:	66 2e 0f 1f 84 00 00 	nopw   %cs:0x0(%rax,%rax,1)
  100c98:	00 00 00 
  100c9b:	66 2e 0f 1f 84 00 00 	nopw   %cs:0x0(%rax,%rax,1)
  100ca2:	00 00 00 
  100ca5:	66 2e 0f 1f 84 00 00 	nopw   %cs:0x0(%rax,%rax,1)
  100cac:	00 00 00 
  100caf:	66 2e 0f 1f 84 00 00 	nopw   %cs:0x0(%rax,%rax,1)
  100cb6:	00 00 00 
  100cb9:	66 2e 0f 1f 84 00 00 	nopw   %cs:0x0(%rax,%rax,1)
  100cc0:	00 00 00 
  100cc3:	66 2e 0f 1f 84 00 00 	nopw   %cs:0x0(%rax,%rax,1)
  100cca:	00 00 00 
  100ccd:	66 2e 0f 1f 84 00 00 	nopw   %cs:0x0(%rax,%rax,1)
  100cd4:	00 00 00 
  100cd7:	66 2e 0f 1f 84 00 00 	nopw   %cs:0x0(%rax,%rax,1)
  100cde:	00 00 00 
  100ce1:	66 2e 0f 1f 84 00 00 	nopw   %cs:0x0(%rax,%rax,1)
  100ce8:	00 00 00 
  100ceb:	66 2e 0f 1f 84 00 00 	nopw   %cs:0x0(%rax,%rax,1)
  100cf2:	00 00 00 
  100cf5:	66 2e 0f 1f 84 00 00 	nopw   %cs:0x0(%rax,%rax,1)
  100cfc:	00 00 00 
  100cff:	66 2e 0f 1f 84 00 00 	nopw   %cs:0x0(%rax,%rax,1)
  100d06:	00 00 00 
  100d09:	66 2e 0f 1f 84 00 00 	nopw   %cs:0x0(%rax,%rax,1)
  100d10:	00 00 00 
  100d13:	66 2e 0f 1f 84 00 00 	nopw   %cs:0x0(%rax,%rax,1)
  100d1a:	00 00 00 
  100d1d:	66 2e 0f 1f 84 00 00 	nopw   %cs:0x0(%rax,%rax,1)
  100d24:	00 00 00 
  100d27:	66 2e 0f 1f 84 00 00 	nopw   %cs:0x0(%rax,%rax,1)
  100d2e:	00 00 00 
  100d31:	66 2e 0f 1f 84 00 00 	nopw   %cs:0x0(%rax,%rax,1)
  100d38:	00 00 00 
  100d3b:	66 2e 0f 1f 84 00 00 	nopw   %cs:0x0(%rax,%rax,1)
  100d42:	00 00 00 
  100d45:	66 2e 0f 1f 84 00 00 	nopw   %cs:0x0(%rax,%rax,1)
  100d4c:	00 00 00 
  100d4f:	66 2e 0f 1f 84 00 00 	nopw   %cs:0x0(%rax,%rax,1)
  100d56:	00 00 00 
  100d59:	66 2e 0f 1f 84 00 00 	nopw   %cs:0x0(%rax,%rax,1)
  100d60:	00 00 00 
  100d63:	66 2e 0f 1f 84 00 00 	nopw   %cs:0x0(%rax,%rax,1)
  100d6a:	00 00 00 
  100d6d:	66 2e 0f 1f 84 00 00 	nopw   %cs:0x0(%rax,%rax,1)
  100d74:	00 00 00 
  100d77:	66 2e 0f 1f 84 00 00 	nopw   %cs:0x0(%rax,%rax,1)
  100d7e:	00 00 00 
  100d81:	66 2e 0f 1f 84 00 00 	nopw   %cs:0x0(%rax,%rax,1)
  100d88:	00 00 00 
  100d8b:	66 2e 0f 1f 84 00 00 	nopw   %cs:0x0(%rax,%rax,1)
  100d92:	00 00 00 
  100d95:	66 2e 0f 1f 84 00 00 	nopw   %cs:0x0(%rax,%rax,1)
  100d9c:	00 00 00 
  100d9f:	66 2e 0f 1f 84 00 00 	nopw   %cs:0x0(%rax,%rax,1)
  100da6:	00 00 00 
  100da9:	66 2e 0f 1f 84 00 00 	nopw   %cs:0x0(%rax,%rax,1)
  100db0:	00 00 00 
  100db3:	66 2e 0f 1f 84 00 00 	nopw   %cs:0x0(%rax,%rax,1)
  100dba:	00 00 00 
  100dbd:	66 2e 0f 1f 84 00 00 	nopw   %cs:0x0(%rax,%rax,1)
  100dc4:	00 00 00 
  100dc7:	66 2e 0f 1f 84 00 00 	nopw   %cs:0x0(%rax,%rax,1)
  100dce:	00 00 00 
  100dd1:	66 2e 0f 1f 84 00 00 	nopw   %cs:0x0(%rax,%rax,1)
  100dd8:	00 00 00 
  100ddb:	66 2e 0f 1f 84 00 00 	nopw   %cs:0x0(%rax,%rax,1)
  100de2:	00 00 00 
  100de5:	66 2e 0f 1f 84 00 00 	nopw   %cs:0x0(%rax,%rax,1)
  100dec:	00 00 00 
  100def:	66 2e 0f 1f 84 00 00 	nopw   %cs:0x0(%rax,%rax,1)
  100df6:	00 00 00 
  100df9:	66 2e 0f 1f 84 00 00 	nopw   %cs:0x0(%rax,%rax,1)
  100e00:	00 00 00 
  100e03:	66 2e 0f 1f 84 00 00 	nopw   %cs:0x0(%rax,%rax,1)
  100e0a:	00 00 00 
  100e0d:	66 2e 0f 1f 84 00 00 	nopw   %cs:0x0(%rax,%rax,1)
  100e14:	00 00 00 
  100e17:	66 2e 0f 1f 84 00 00 	nopw   %cs:0x0(%rax,%rax,1)
  100e1e:	00 00 00 
  100e21:	66 2e 0f 1f 84 00 00 	nopw   %cs:0x0(%rax,%rax,1)
  100e28:	00 00 00 
  100e2b:	66 2e 0f 1f 84 00 00 	nopw   %cs:0x0(%rax,%rax,1)
  100e32:	00 00 00 
  100e35:	66 2e 0f 1f 84 00 00 	nopw   %cs:0x0(%rax,%rax,1)
  100e3c:	00 00 00 
  100e3f:	66 2e 0f 1f 84 00 00 	nopw   %cs:0x0(%rax,%rax,1)
  100e46:	00 00 00 
  100e49:	66 2e 0f 1f 84 00 00 	nopw   %cs:0x0(%rax,%rax,1)
  100e50:	00 00 00 
  100e53:	66 2e 0f 1f 84 00 00 	nopw   %cs:0x0(%rax,%rax,1)
  100e5a:	00 00 00 
  100e5d:	66 2e 0f 1f 84 00 00 	nopw   %cs:0x0(%rax,%rax,1)
  100e64:	00 00 00 
  100e67:	66 2e 0f 1f 84 00 00 	nopw   %cs:0x0(%rax,%rax,1)
  100e6e:	00 00 00 
  100e71:	66 2e 0f 1f 84 00 00 	nopw   %cs:0x0(%rax,%rax,1)
  100e78:	00 00 00 
  100e7b:	66 2e 0f 1f 84 00 00 	nopw   %cs:0x0(%rax,%rax,1)
  100e82:	00 00 00 
  100e85:	66 2e 0f 1f 84 00 00 	nopw   %cs:0x0(%rax,%rax,1)
  100e8c:	00 00 00 
  100e8f:	66 2e 0f 1f 84 00 00 	nopw   %cs:0x0(%rax,%rax,1)
  100e96:	00 00 00 
  100e99:	66 2e 0f 1f 84 00 00 	nopw   %cs:0x0(%rax,%rax,1)
  100ea0:	00 00 00 
  100ea3:	66 2e 0f 1f 84 00 00 	nopw   %cs:0x0(%rax,%rax,1)
  100eaa:	00 00 00 
  100ead:	66 2e 0f 1f 84 00 00 	nopw   %cs:0x0(%rax,%rax,1)
  100eb4:	00 00 00 
  100eb7:	66 2e 0f 1f 84 00 00 	nopw   %cs:0x0(%rax,%rax,1)
  100ebe:	00 00 00 
  100ec1:	66 2e 0f 1f 84 00 00 	nopw   %cs:0x0(%rax,%rax,1)
  100ec8:	00 00 00 
  100ecb:	66 2e 0f 1f 84 00 00 	nopw   %cs:0x0(%rax,%rax,1)
  100ed2:	00 00 00 
  100ed5:	66 2e 0f 1f 84 00 00 	nopw   %cs:0x0(%rax,%rax,1)
  100edc:	00 00 00 
  100edf:	66 2e 0f 1f 84 00 00 	nopw   %cs:0x0(%rax,%rax,1)
  100ee6:	00 00 00 
  100ee9:	66 2e 0f 1f 84 00 00 	nopw   %cs:0x0(%rax,%rax,1)
  100ef0:	00 00 00 
  100ef3:	66 2e 0f 1f 84 00 00 	nopw   %cs:0x0(%rax,%rax,1)
  100efa:	00 00 00 
  100efd:	66 2e 0f 1f 84 00 00 	nopw   %cs:0x0(%rax,%rax,1)
  100f04:	00 00 00 
  100f07:	66 2e 0f 1f 84 00 00 	nopw   %cs:0x0(%rax,%rax,1)
  100f0e:	00 00 00 
  100f11:	66 2e 0f 1f 84 00 00 	nopw   %cs:0x0(%rax,%rax,1)
  100f18:	00 00 00 
  100f1b:	66 2e 0f 1f 84 00 00 	nopw   %cs:0x0(%rax,%rax,1)
  100f22:	00 00 00 
  100f25:	66 2e 0f 1f 84 00 00 	nopw   %cs:0x0(%rax,%rax,1)
  100f2c:	00 00 00 
  100f2f:	66 2e 0f 1f 84 00 00 	nopw   %cs:0x0(%rax,%rax,1)
  100f36:	00 00 00 
  100f39:	66 2e 0f 1f 84 00 00 	nopw   %cs:0x0(%rax,%rax,1)
  100f40:	00 00 00 
  100f43:	66 2e 0f 1f 84 00 00 	nopw   %cs:0x0(%rax,%rax,1)
  100f4a:	00 00 00 
  100f4d:	66 2e 0f 1f 84 00 00 	nopw   %cs:0x0(%rax,%rax,1)
  100f54:	00 00 00 
  100f57:	66 2e 0f 1f 84 00 00 	nopw   %cs:0x0(%rax,%rax,1)
  100f5e:	00 00 00 
  100f61:	66 2e 0f 1f 84 00 00 	nopw   %cs:0x0(%rax,%rax,1)
  100f68:	00 00 00 
  100f6b:	66 2e 0f 1f 84 00 00 	nopw   %cs:0x0(%rax,%rax,1)
  100f72:	00 00 00 
  100f75:	66 2e 0f 1f 84 00 00 	nopw   %cs:0x0(%rax,%rax,1)
  100f7c:	00 00 00 
  100f7f:	66 2e 0f 1f 84 00 00 	nopw   %cs:0x0(%rax,%rax,1)
  100f86:	00 00 00 
  100f89:	66 2e 0f 1f 84 00 00 	nopw   %cs:0x0(%rax,%rax,1)
  100f90:	00 00 00 
  100f93:	66 2e 0f 1f 84 00 00 	nopw   %cs:0x0(%rax,%rax,1)
  100f9a:	00 00 00 
  100f9d:	66 2e 0f 1f 84 00 00 	nopw   %cs:0x0(%rax,%rax,1)
  100fa4:	00 00 00 
  100fa7:	66 2e 0f 1f 84 00 00 	nopw   %cs:0x0(%rax,%rax,1)
  100fae:	00 00 00 
  100fb1:	66 2e 0f 1f 84 00 00 	nopw   %cs:0x0(%rax,%rax,1)
  100fb8:	00 00 00 
  100fbb:	66 2e 0f 1f 84 00 00 	nopw   %cs:0x0(%rax,%rax,1)
  100fc2:	00 00 00 
  100fc5:	66 2e 0f 1f 84 00 00 	nopw   %cs:0x0(%rax,%rax,1)
  100fcc:	00 00 00 
  100fcf:	66 2e 0f 1f 84 00 00 	nopw   %cs:0x0(%rax,%rax,1)
  100fd6:	00 00 00 
  100fd9:	66 2e 0f 1f 84 00 00 	nopw   %cs:0x0(%rax,%rax,1)
  100fe0:	00 00 00 
  100fe3:	66 2e 0f 1f 84 00 00 	nopw   %cs:0x0(%rax,%rax,1)
  100fea:	00 00 00 
  100fed:	66 2e 0f 1f 84 00 00 	nopw   %cs:0x0(%rax,%rax,1)
  100ff4:	00 00 00 
  100ff7:	66 0f 1f 84 00 00 00 	nopw   0x0(%rax,%rax,1)
  100ffe:	00 00 

0000000000101000 <gdt_64>:
	...
  101008:	ff                   	(bad)  
  101009:	ff 00                	incl   (%rax)
  10100b:	00 00                	add    %al,(%rax)
  10100d:	9a                   	(bad)  
  10100e:	af                   	scas   %es:(%rdi),%eax
  10100f:	00 ff                	add    %bh,%bh
  101011:	ff 00                	incl   (%rax)
  101013:	00 00                	add    %al,(%rax)
  101015:	92                   	xchg   %eax,%edx
  101016:	cf                   	iret   
	...

0000000000101018 <gdtdesc_64>:
  101018:	17                   	(bad)  
  101019:	00 00                	add    %al,(%rax)
  10101b:	10 10                	adc    %dl,(%rax)
	...

0000000000102000 <pml4phys>:
	...

0000000000103000 <pdpt1>:
	...

0000000000104000 <pdpt2>:
	...

0000000000105000 <pde1>:
	...

0000000000106000 <pde2>:
	...

0000000000107000 <multiboot_info>:
  107000:	00 00                	add    %al,(%rax)
	...

Disassembly of section .text:

0000008004200000 <_start+0x8003fffff4>:
  8004200000:	02 b0 ad 1b 00 00    	add    0x1bad(%rax),%dh
  8004200006:	00 00                	add    %al,(%rax)
  8004200008:	fe 4f 52             	decb   0x52(%rdi)
  800420000b:	e4 48                	in     $0x48,%al

000000800420000c <entry>:
entry:

/* .globl _back_from_head64 */
/* _back_from_head64: */

    movabs   $gdtdesc_64,%rax
  800420000c:	48 b8 38 c0 21 04 80 	movabs $0x800421c038,%rax
  8004200013:	00 00 00 
    lgdt     (%rax)
  8004200016:	0f 01 10             	lgdt   (%rax)
    movw    $DATA_SEL,%ax
  8004200019:	66 b8 10 00          	mov    $0x10,%ax
    movw    %ax,%ds
  800420001d:	8e d8                	mov    %eax,%ds
    movw    %ax,%ss
  800420001f:	8e d0                	mov    %eax,%ss
    movw    %ax,%fs
  8004200021:	8e e0                	mov    %eax,%fs
    movw    %ax,%gs
  8004200023:	8e e8                	mov    %eax,%gs
    movw    %ax,%es
  8004200025:	8e c0                	mov    %eax,%es
    pushq   $CODE_SEL
  8004200027:	6a 08                	pushq  $0x8
    movabs  $relocated,%rax
  8004200029:	48 b8 36 00 20 04 80 	movabs $0x8004200036,%rax
  8004200030:	00 00 00 
    pushq   %rax
  8004200033:	50                   	push   %rax
    lretq
  8004200034:	48 cb                	lretq  

0000008004200036 <relocated>:
relocated:

	# Clear the frame pointer register (RBP)
	# so that once we get into debugging C code,
	# stack backtraces will be terminated properly.
	movq	$0x0,%rbp			# nuke frame pointer
  8004200036:	48 c7 c5 00 00 00 00 	mov    $0x0,%rbp

	# Set the stack pointer
	movabs	$(bootstacktop),%rax
  800420003d:	48 b8 00 c0 21 04 80 	movabs $0x800421c000,%rax
  8004200044:	00 00 00 
	movq  %rax,%rsp
  8004200047:	48 89 c4             	mov    %rax,%rsp

	# now to C code
    movabs $i386_init, %rax
  800420004a:	48 b8 dc 00 20 04 80 	movabs $0x80042000dc,%rax
  8004200051:	00 00 00 
	call *%rax
  8004200054:	ff d0                	callq  *%rax

0000008004200056 <spin>:

	# Should never get here, but in case we do, just spin.
spin:	jmp	spin
  8004200056:	eb fe                	jmp    8004200056 <spin>

0000008004200058 <test_backtrace>:


// Test the stack backtrace function (lab 1 only)
void
test_backtrace(int x)
{
  8004200058:	55                   	push   %rbp
  8004200059:	48 89 e5             	mov    %rsp,%rbp
  800420005c:	48 83 ec 10          	sub    $0x10,%rsp
  8004200060:	89 7d fc             	mov    %edi,-0x4(%rbp)
	cprintf("entering test_backtrace %d\n", x);
  8004200063:	8b 45 fc             	mov    -0x4(%rbp),%eax
  8004200066:	89 c6                	mov    %eax,%esi
  8004200068:	48 bf 40 93 20 04 80 	movabs $0x8004209340,%rdi
  800420006f:	00 00 00 
  8004200072:	b8 00 00 00 00       	mov    $0x0,%eax
  8004200077:	48 ba 09 14 20 04 80 	movabs $0x8004201409,%rdx
  800420007e:	00 00 00 
  8004200081:	ff d2                	callq  *%rdx
	if (x > 0)
  8004200083:	83 7d fc 00          	cmpl   $0x0,-0x4(%rbp)
  8004200087:	7e 16                	jle    800420009f <test_backtrace+0x47>
		test_backtrace(x-1);
  8004200089:	8b 45 fc             	mov    -0x4(%rbp),%eax
  800420008c:	83 e8 01             	sub    $0x1,%eax
  800420008f:	89 c7                	mov    %eax,%edi
  8004200091:	48 b8 58 00 20 04 80 	movabs $0x8004200058,%rax
  8004200098:	00 00 00 
  800420009b:	ff d0                	callq  *%rax
  800420009d:	eb 1b                	jmp    80042000ba <test_backtrace+0x62>
	else
		mon_backtrace(0, 0, 0);
  800420009f:	ba 00 00 00 00       	mov    $0x0,%edx
  80042000a4:	be 00 00 00 00       	mov    $0x0,%esi
  80042000a9:	bf 00 00 00 00       	mov    $0x0,%edi
  80042000ae:	48 b8 ca 10 20 04 80 	movabs $0x80042010ca,%rax
  80042000b5:	00 00 00 
  80042000b8:	ff d0                	callq  *%rax
	cprintf("leaving test_backtrace %d\n", x);
  80042000ba:	8b 45 fc             	mov    -0x4(%rbp),%eax
  80042000bd:	89 c6                	mov    %eax,%esi
  80042000bf:	48 bf 5c 93 20 04 80 	movabs $0x800420935c,%rdi
  80042000c6:	00 00 00 
  80042000c9:	b8 00 00 00 00       	mov    $0x0,%eax
  80042000ce:	48 ba 09 14 20 04 80 	movabs $0x8004201409,%rdx
  80042000d5:	00 00 00 
  80042000d8:	ff d2                	callq  *%rdx
}
  80042000da:	c9                   	leaveq 
  80042000db:	c3                   	retq   

00000080042000dc <i386_init>:

void
i386_init(void)
{
  80042000dc:	55                   	push   %rbp
  80042000dd:	48 89 e5             	mov    %rsp,%rbp
	extern char edata[], end[];

	// Before doing anything else, complete the ELF loading process.
	// Clear the uninitialized global data (BSS) section of our program.
	// This ensures that all static/global variables start out zero.
	memset(edata, 0, end - edata);
  80042000e0:	48 ba 40 dd 21 04 80 	movabs $0x800421dd40,%rdx
  80042000e7:	00 00 00 
  80042000ea:	48 b8 a0 c6 21 04 80 	movabs $0x800421c6a0,%rax
  80042000f1:	00 00 00 
  80042000f4:	48 29 c2             	sub    %rax,%rdx
  80042000f7:	48 89 d0             	mov    %rdx,%rax
  80042000fa:	48 89 c2             	mov    %rax,%rdx
  80042000fd:	be 00 00 00 00       	mov    $0x0,%esi
  8004200102:	48 bf a0 c6 21 04 80 	movabs $0x800421c6a0,%rdi
  8004200109:	00 00 00 
  800420010c:	48 b8 46 2f 20 04 80 	movabs $0x8004202f46,%rax
  8004200113:	00 00 00 
  8004200116:	ff d0                	callq  *%rax

	// Initialize the console.
	// Can't call cprintf until after we do this!
	cons_init();
  8004200118:	48 b8 fa 0d 20 04 80 	movabs $0x8004200dfa,%rax
  800420011f:	00 00 00 
  8004200122:	ff d0                	callq  *%rax

	cprintf("6828 decimal is %o octal!\n", 6828);
  8004200124:	be ac 1a 00 00       	mov    $0x1aac,%esi
  8004200129:	48 bf 77 93 20 04 80 	movabs $0x8004209377,%rdi
  8004200130:	00 00 00 
  8004200133:	b8 00 00 00 00       	mov    $0x0,%eax
  8004200138:	48 ba 09 14 20 04 80 	movabs $0x8004201409,%rdx
  800420013f:	00 00 00 
  8004200142:	ff d2                	callq  *%rdx

	extern char end[];
	end_debug = read_section_headers((0x10000+KERNBASE), (uintptr_t)end);
  8004200144:	48 b8 40 dd 21 04 80 	movabs $0x800421dd40,%rax
  800420014b:	00 00 00 
  800420014e:	48 89 c6             	mov    %rax,%rsi
  8004200151:	48 bf 00 00 01 04 80 	movabs $0x8004010000,%rdi
  8004200158:	00 00 00 
  800420015b:	48 b8 66 89 20 04 80 	movabs $0x8004208966,%rax
  8004200162:	00 00 00 
  8004200165:	ff d0                	callq  *%rax
  8004200167:	48 ba 48 cd 21 04 80 	movabs $0x800421cd48,%rdx
  800420016e:	00 00 00 
  8004200171:	48 89 02             	mov    %rax,(%rdx)




	// Test the stack backtrace function (lab 1 only)
	test_backtrace(5);
  8004200174:	bf 05 00 00 00       	mov    $0x5,%edi
  8004200179:	48 b8 58 00 20 04 80 	movabs $0x8004200058,%rax
  8004200180:	00 00 00 
  8004200183:	ff d0                	callq  *%rax

	// Drop into the kernel monitor.
	while (1)
		monitor(NULL);
  8004200185:	bf 00 00 00 00       	mov    $0x0,%edi
  800420018a:	48 b8 f5 12 20 04 80 	movabs $0x80042012f5,%rax
  8004200191:	00 00 00 
  8004200194:	ff d0                	callq  *%rax
  8004200196:	eb ed                	jmp    8004200185 <i386_init+0xa9>

0000008004200198 <_panic>:
 * Panic is called on unresolvable fatal errors.
 * It prints "panic: mesg", and then enters the kernel monitor.
 */
void
_panic(const char *file, int line, const char *fmt,...)
{
  8004200198:	55                   	push   %rbp
  8004200199:	48 89 e5             	mov    %rsp,%rbp
  800420019c:	48 81 ec f0 00 00 00 	sub    $0xf0,%rsp
  80042001a3:	48 89 bd 28 ff ff ff 	mov    %rdi,-0xd8(%rbp)
  80042001aa:	89 b5 24 ff ff ff    	mov    %esi,-0xdc(%rbp)
  80042001b0:	48 89 8d 68 ff ff ff 	mov    %rcx,-0x98(%rbp)
  80042001b7:	4c 89 85 70 ff ff ff 	mov    %r8,-0x90(%rbp)
  80042001be:	4c 89 8d 78 ff ff ff 	mov    %r9,-0x88(%rbp)
  80042001c5:	84 c0                	test   %al,%al
  80042001c7:	74 20                	je     80042001e9 <_panic+0x51>
  80042001c9:	0f 29 45 80          	movaps %xmm0,-0x80(%rbp)
  80042001cd:	0f 29 4d 90          	movaps %xmm1,-0x70(%rbp)
  80042001d1:	0f 29 55 a0          	movaps %xmm2,-0x60(%rbp)
  80042001d5:	0f 29 5d b0          	movaps %xmm3,-0x50(%rbp)
  80042001d9:	0f 29 65 c0          	movaps %xmm4,-0x40(%rbp)
  80042001dd:	0f 29 6d d0          	movaps %xmm5,-0x30(%rbp)
  80042001e1:	0f 29 75 e0          	movaps %xmm6,-0x20(%rbp)
  80042001e5:	0f 29 7d f0          	movaps %xmm7,-0x10(%rbp)
  80042001e9:	48 89 95 18 ff ff ff 	mov    %rdx,-0xe8(%rbp)
	va_list ap;

	if (panicstr)
  80042001f0:	48 b8 50 cd 21 04 80 	movabs $0x800421cd50,%rax
  80042001f7:	00 00 00 
  80042001fa:	48 8b 00             	mov    (%rax),%rax
  80042001fd:	48 85 c0             	test   %rax,%rax
  8004200200:	74 05                	je     8004200207 <_panic+0x6f>
		goto dead;
  8004200202:	e9 a9 00 00 00       	jmpq   80042002b0 <_panic+0x118>
	panicstr = fmt;
  8004200207:	48 b8 50 cd 21 04 80 	movabs $0x800421cd50,%rax
  800420020e:	00 00 00 
  8004200211:	48 8b 95 18 ff ff ff 	mov    -0xe8(%rbp),%rdx
  8004200218:	48 89 10             	mov    %rdx,(%rax)

	// Be extra sure that the machine is in as reasonable state
	__asm __volatile("cli; cld");
  800420021b:	fa                   	cli    
  800420021c:	fc                   	cld    

	va_start(ap, fmt);
  800420021d:	c7 85 38 ff ff ff 18 	movl   $0x18,-0xc8(%rbp)
  8004200224:	00 00 00 
  8004200227:	c7 85 3c ff ff ff 30 	movl   $0x30,-0xc4(%rbp)
  800420022e:	00 00 00 
  8004200231:	48 8d 45 10          	lea    0x10(%rbp),%rax
  8004200235:	48 89 85 40 ff ff ff 	mov    %rax,-0xc0(%rbp)
  800420023c:	48 8d 85 50 ff ff ff 	lea    -0xb0(%rbp),%rax
  8004200243:	48 89 85 48 ff ff ff 	mov    %rax,-0xb8(%rbp)
	cprintf("kernel panic at %s:%d: ", file, line);
  800420024a:	8b 95 24 ff ff ff    	mov    -0xdc(%rbp),%edx
  8004200250:	48 8b 85 28 ff ff ff 	mov    -0xd8(%rbp),%rax
  8004200257:	48 89 c6             	mov    %rax,%rsi
  800420025a:	48 bf 92 93 20 04 80 	movabs $0x8004209392,%rdi
  8004200261:	00 00 00 
  8004200264:	b8 00 00 00 00       	mov    $0x0,%eax
  8004200269:	48 b9 09 14 20 04 80 	movabs $0x8004201409,%rcx
  8004200270:	00 00 00 
  8004200273:	ff d1                	callq  *%rcx
	vcprintf(fmt, ap);
  8004200275:	48 8d 95 38 ff ff ff 	lea    -0xc8(%rbp),%rdx
  800420027c:	48 8b 85 18 ff ff ff 	mov    -0xe8(%rbp),%rax
  8004200283:	48 89 d6             	mov    %rdx,%rsi
  8004200286:	48 89 c7             	mov    %rax,%rdi
  8004200289:	48 b8 aa 13 20 04 80 	movabs $0x80042013aa,%rax
  8004200290:	00 00 00 
  8004200293:	ff d0                	callq  *%rax
	cprintf("\n");
  8004200295:	48 bf aa 93 20 04 80 	movabs $0x80042093aa,%rdi
  800420029c:	00 00 00 
  800420029f:	b8 00 00 00 00       	mov    $0x0,%eax
  80042002a4:	48 ba 09 14 20 04 80 	movabs $0x8004201409,%rdx
  80042002ab:	00 00 00 
  80042002ae:	ff d2                	callq  *%rdx
	va_end(ap);

dead:
	/* break into the kernel monitor */
	while (1)
		monitor(NULL);
  80042002b0:	bf 00 00 00 00       	mov    $0x0,%edi
  80042002b5:	48 b8 f5 12 20 04 80 	movabs $0x80042012f5,%rax
  80042002bc:	00 00 00 
  80042002bf:	ff d0                	callq  *%rax
  80042002c1:	eb ed                	jmp    80042002b0 <_panic+0x118>

00000080042002c3 <_warn>:
}

/* like panic, but don't */
void
_warn(const char *file, int line, const char *fmt,...)
{
  80042002c3:	55                   	push   %rbp
  80042002c4:	48 89 e5             	mov    %rsp,%rbp
  80042002c7:	48 81 ec f0 00 00 00 	sub    $0xf0,%rsp
  80042002ce:	48 89 bd 28 ff ff ff 	mov    %rdi,-0xd8(%rbp)
  80042002d5:	89 b5 24 ff ff ff    	mov    %esi,-0xdc(%rbp)
  80042002db:	48 89 8d 68 ff ff ff 	mov    %rcx,-0x98(%rbp)
  80042002e2:	4c 89 85 70 ff ff ff 	mov    %r8,-0x90(%rbp)
  80042002e9:	4c 89 8d 78 ff ff ff 	mov    %r9,-0x88(%rbp)
  80042002f0:	84 c0                	test   %al,%al
  80042002f2:	74 20                	je     8004200314 <_warn+0x51>
  80042002f4:	0f 29 45 80          	movaps %xmm0,-0x80(%rbp)
  80042002f8:	0f 29 4d 90          	movaps %xmm1,-0x70(%rbp)
  80042002fc:	0f 29 55 a0          	movaps %xmm2,-0x60(%rbp)
  8004200300:	0f 29 5d b0          	movaps %xmm3,-0x50(%rbp)
  8004200304:	0f 29 65 c0          	movaps %xmm4,-0x40(%rbp)
  8004200308:	0f 29 6d d0          	movaps %xmm5,-0x30(%rbp)
  800420030c:	0f 29 75 e0          	movaps %xmm6,-0x20(%rbp)
  8004200310:	0f 29 7d f0          	movaps %xmm7,-0x10(%rbp)
  8004200314:	48 89 95 18 ff ff ff 	mov    %rdx,-0xe8(%rbp)
	va_list ap;

	va_start(ap, fmt);
  800420031b:	c7 85 38 ff ff ff 18 	movl   $0x18,-0xc8(%rbp)
  8004200322:	00 00 00 
  8004200325:	c7 85 3c ff ff ff 30 	movl   $0x30,-0xc4(%rbp)
  800420032c:	00 00 00 
  800420032f:	48 8d 45 10          	lea    0x10(%rbp),%rax
  8004200333:	48 89 85 40 ff ff ff 	mov    %rax,-0xc0(%rbp)
  800420033a:	48 8d 85 50 ff ff ff 	lea    -0xb0(%rbp),%rax
  8004200341:	48 89 85 48 ff ff ff 	mov    %rax,-0xb8(%rbp)
	cprintf("kernel warning at %s:%d: ", file, line);
  8004200348:	8b 95 24 ff ff ff    	mov    -0xdc(%rbp),%edx
  800420034e:	48 8b 85 28 ff ff ff 	mov    -0xd8(%rbp),%rax
  8004200355:	48 89 c6             	mov    %rax,%rsi
  8004200358:	48 bf ac 93 20 04 80 	movabs $0x80042093ac,%rdi
  800420035f:	00 00 00 
  8004200362:	b8 00 00 00 00       	mov    $0x0,%eax
  8004200367:	48 b9 09 14 20 04 80 	movabs $0x8004201409,%rcx
  800420036e:	00 00 00 
  8004200371:	ff d1                	callq  *%rcx
	vcprintf(fmt, ap);
  8004200373:	48 8d 95 38 ff ff ff 	lea    -0xc8(%rbp),%rdx
  800420037a:	48 8b 85 18 ff ff ff 	mov    -0xe8(%rbp),%rax
  8004200381:	48 89 d6             	mov    %rdx,%rsi
  8004200384:	48 89 c7             	mov    %rax,%rdi
  8004200387:	48 b8 aa 13 20 04 80 	movabs $0x80042013aa,%rax
  800420038e:	00 00 00 
  8004200391:	ff d0                	callq  *%rax
	cprintf("\n");
  8004200393:	48 bf aa 93 20 04 80 	movabs $0x80042093aa,%rdi
  800420039a:	00 00 00 
  800420039d:	b8 00 00 00 00       	mov    $0x0,%eax
  80042003a2:	48 ba 09 14 20 04 80 	movabs $0x8004201409,%rdx
  80042003a9:	00 00 00 
  80042003ac:	ff d2                	callq  *%rdx
	va_end(ap);
}
  80042003ae:	c9                   	leaveq 
  80042003af:	c3                   	retq   

00000080042003b0 <delay>:
static void cons_putc(int c);

// Stupid I/O delay routine necessitated by historical PC design flaws
static void
delay(void)
{
  80042003b0:	55                   	push   %rbp
  80042003b1:	48 89 e5             	mov    %rsp,%rbp
  80042003b4:	48 83 ec 20          	sub    $0x20,%rsp
  80042003b8:	c7 45 fc 84 00 00 00 	movl   $0x84,-0x4(%rbp)

static __inline uint8_t
inb(int port)
{
	uint8_t data;
	__asm __volatile("inb %w1,%0" : "=a" (data) : "d" (port));
  80042003bf:	8b 45 fc             	mov    -0x4(%rbp),%eax
  80042003c2:	89 c2                	mov    %eax,%edx
  80042003c4:	ec                   	in     (%dx),%al
  80042003c5:	88 45 fb             	mov    %al,-0x5(%rbp)
  80042003c8:	c7 45 f4 84 00 00 00 	movl   $0x84,-0xc(%rbp)
  80042003cf:	8b 45 f4             	mov    -0xc(%rbp),%eax
  80042003d2:	89 c2                	mov    %eax,%edx
  80042003d4:	ec                   	in     (%dx),%al
  80042003d5:	88 45 f3             	mov    %al,-0xd(%rbp)
  80042003d8:	c7 45 ec 84 00 00 00 	movl   $0x84,-0x14(%rbp)
  80042003df:	8b 45 ec             	mov    -0x14(%rbp),%eax
  80042003e2:	89 c2                	mov    %eax,%edx
  80042003e4:	ec                   	in     (%dx),%al
  80042003e5:	88 45 eb             	mov    %al,-0x15(%rbp)
  80042003e8:	c7 45 e4 84 00 00 00 	movl   $0x84,-0x1c(%rbp)
  80042003ef:	8b 45 e4             	mov    -0x1c(%rbp),%eax
  80042003f2:	89 c2                	mov    %eax,%edx
  80042003f4:	ec                   	in     (%dx),%al
  80042003f5:	88 45 e3             	mov    %al,-0x1d(%rbp)
	inb(0x84);
	inb(0x84);
	inb(0x84);
	inb(0x84);
}
  80042003f8:	c9                   	leaveq 
  80042003f9:	c3                   	retq   

00000080042003fa <serial_proc_data>:

static bool serial_exists;

static int
serial_proc_data(void)
{
  80042003fa:	55                   	push   %rbp
  80042003fb:	48 89 e5             	mov    %rsp,%rbp
  80042003fe:	48 83 ec 10          	sub    $0x10,%rsp
  8004200402:	c7 45 fc fd 03 00 00 	movl   $0x3fd,-0x4(%rbp)
  8004200409:	8b 45 fc             	mov    -0x4(%rbp),%eax
  800420040c:	89 c2                	mov    %eax,%edx
  800420040e:	ec                   	in     (%dx),%al
  800420040f:	88 45 fb             	mov    %al,-0x5(%rbp)
	return data;
  8004200412:	0f b6 45 fb          	movzbl -0x5(%rbp),%eax
	if (!(inb(COM1+COM_LSR) & COM_LSR_DATA))
  8004200416:	0f b6 c0             	movzbl %al,%eax
  8004200419:	83 e0 01             	and    $0x1,%eax
  800420041c:	85 c0                	test   %eax,%eax
  800420041e:	75 07                	jne    8004200427 <serial_proc_data+0x2d>
		return -1;
  8004200420:	b8 ff ff ff ff       	mov    $0xffffffff,%eax
  8004200425:	eb 17                	jmp    800420043e <serial_proc_data+0x44>
  8004200427:	c7 45 f4 f8 03 00 00 	movl   $0x3f8,-0xc(%rbp)

static __inline uint8_t
inb(int port)
{
	uint8_t data;
	__asm __volatile("inb %w1,%0" : "=a" (data) : "d" (port));
  800420042e:	8b 45 f4             	mov    -0xc(%rbp),%eax
  8004200431:	89 c2                	mov    %eax,%edx
  8004200433:	ec                   	in     (%dx),%al
  8004200434:	88 45 f3             	mov    %al,-0xd(%rbp)
	return data;
  8004200437:	0f b6 45 f3          	movzbl -0xd(%rbp),%eax
	return inb(COM1+COM_RX);
  800420043b:	0f b6 c0             	movzbl %al,%eax
}
  800420043e:	c9                   	leaveq 
  800420043f:	c3                   	retq   

0000008004200440 <serial_intr>:

void
serial_intr(void)
{
  8004200440:	55                   	push   %rbp
  8004200441:	48 89 e5             	mov    %rsp,%rbp
	if (serial_exists)
  8004200444:	48 b8 a0 c6 21 04 80 	movabs $0x800421c6a0,%rax
  800420044b:	00 00 00 
  800420044e:	0f b6 00             	movzbl (%rax),%eax
  8004200451:	84 c0                	test   %al,%al
  8004200453:	74 16                	je     800420046b <serial_intr+0x2b>
		cons_intr(serial_proc_data);
  8004200455:	48 bf fa 03 20 04 80 	movabs $0x80042003fa,%rdi
  800420045c:	00 00 00 
  800420045f:	48 b8 7d 0c 20 04 80 	movabs $0x8004200c7d,%rax
  8004200466:	00 00 00 
  8004200469:	ff d0                	callq  *%rax
}
  800420046b:	5d                   	pop    %rbp
  800420046c:	c3                   	retq   

000000800420046d <serial_putc>:

static void
serial_putc(int c)
{
  800420046d:	55                   	push   %rbp
  800420046e:	48 89 e5             	mov    %rsp,%rbp
  8004200471:	48 83 ec 28          	sub    $0x28,%rsp
  8004200475:	89 7d dc             	mov    %edi,-0x24(%rbp)
	int i;

	for (i = 0;
  8004200478:	c7 45 fc 00 00 00 00 	movl   $0x0,-0x4(%rbp)
  800420047f:	eb 10                	jmp    8004200491 <serial_putc+0x24>
	     !(inb(COM1 + COM_LSR) & COM_LSR_TXRDY) && i < 12800;
	     i++)
		delay();
  8004200481:	48 b8 b0 03 20 04 80 	movabs $0x80042003b0,%rax
  8004200488:	00 00 00 
  800420048b:	ff d0                	callq  *%rax
{
	int i;

	for (i = 0;
	     !(inb(COM1 + COM_LSR) & COM_LSR_TXRDY) && i < 12800;
	     i++)
  800420048d:	83 45 fc 01          	addl   $0x1,-0x4(%rbp)
  8004200491:	c7 45 f8 fd 03 00 00 	movl   $0x3fd,-0x8(%rbp)

static __inline uint8_t
inb(int port)
{
	uint8_t data;
	__asm __volatile("inb %w1,%0" : "=a" (data) : "d" (port));
  8004200498:	8b 45 f8             	mov    -0x8(%rbp),%eax
  800420049b:	89 c2                	mov    %eax,%edx
  800420049d:	ec                   	in     (%dx),%al
  800420049e:	88 45 f7             	mov    %al,-0x9(%rbp)
	return data;
  80042004a1:	0f b6 45 f7          	movzbl -0x9(%rbp),%eax
serial_putc(int c)
{
	int i;

	for (i = 0;
	     !(inb(COM1 + COM_LSR) & COM_LSR_TXRDY) && i < 12800;
  80042004a5:	0f b6 c0             	movzbl %al,%eax
  80042004a8:	83 e0 20             	and    $0x20,%eax
static void
serial_putc(int c)
{
	int i;

	for (i = 0;
  80042004ab:	85 c0                	test   %eax,%eax
  80042004ad:	75 09                	jne    80042004b8 <serial_putc+0x4b>
	     !(inb(COM1 + COM_LSR) & COM_LSR_TXRDY) && i < 12800;
  80042004af:	81 7d fc ff 31 00 00 	cmpl   $0x31ff,-0x4(%rbp)
  80042004b6:	7e c9                	jle    8004200481 <serial_putc+0x14>
	     i++)
		delay();

	outb(COM1 + COM_TX, c);
  80042004b8:	8b 45 dc             	mov    -0x24(%rbp),%eax
  80042004bb:	0f b6 c0             	movzbl %al,%eax
  80042004be:	c7 45 f0 f8 03 00 00 	movl   $0x3f8,-0x10(%rbp)
  80042004c5:	88 45 ef             	mov    %al,-0x11(%rbp)
}

static __inline void
outb(int port, uint8_t data)
{
	__asm __volatile("outb %0,%w1" : : "a" (data), "d" (port));
  80042004c8:	0f b6 45 ef          	movzbl -0x11(%rbp),%eax
  80042004cc:	8b 55 f0             	mov    -0x10(%rbp),%edx
  80042004cf:	ee                   	out    %al,(%dx)
}
  80042004d0:	c9                   	leaveq 
  80042004d1:	c3                   	retq   

00000080042004d2 <serial_init>:

static void
serial_init(void)
{
  80042004d2:	55                   	push   %rbp
  80042004d3:	48 89 e5             	mov    %rsp,%rbp
  80042004d6:	48 83 ec 50          	sub    $0x50,%rsp
  80042004da:	c7 45 fc fa 03 00 00 	movl   $0x3fa,-0x4(%rbp)
  80042004e1:	c6 45 fb 00          	movb   $0x0,-0x5(%rbp)
  80042004e5:	0f b6 45 fb          	movzbl -0x5(%rbp),%eax
  80042004e9:	8b 55 fc             	mov    -0x4(%rbp),%edx
  80042004ec:	ee                   	out    %al,(%dx)
  80042004ed:	c7 45 f4 fb 03 00 00 	movl   $0x3fb,-0xc(%rbp)
  80042004f4:	c6 45 f3 80          	movb   $0x80,-0xd(%rbp)
  80042004f8:	0f b6 45 f3          	movzbl -0xd(%rbp),%eax
  80042004fc:	8b 55 f4             	mov    -0xc(%rbp),%edx
  80042004ff:	ee                   	out    %al,(%dx)
  8004200500:	c7 45 ec f8 03 00 00 	movl   $0x3f8,-0x14(%rbp)
  8004200507:	c6 45 eb 0c          	movb   $0xc,-0x15(%rbp)
  800420050b:	0f b6 45 eb          	movzbl -0x15(%rbp),%eax
  800420050f:	8b 55 ec             	mov    -0x14(%rbp),%edx
  8004200512:	ee                   	out    %al,(%dx)
  8004200513:	c7 45 e4 f9 03 00 00 	movl   $0x3f9,-0x1c(%rbp)
  800420051a:	c6 45 e3 00          	movb   $0x0,-0x1d(%rbp)
  800420051e:	0f b6 45 e3          	movzbl -0x1d(%rbp),%eax
  8004200522:	8b 55 e4             	mov    -0x1c(%rbp),%edx
  8004200525:	ee                   	out    %al,(%dx)
  8004200526:	c7 45 dc fb 03 00 00 	movl   $0x3fb,-0x24(%rbp)
  800420052d:	c6 45 db 03          	movb   $0x3,-0x25(%rbp)
  8004200531:	0f b6 45 db          	movzbl -0x25(%rbp),%eax
  8004200535:	8b 55 dc             	mov    -0x24(%rbp),%edx
  8004200538:	ee                   	out    %al,(%dx)
  8004200539:	c7 45 d4 fc 03 00 00 	movl   $0x3fc,-0x2c(%rbp)
  8004200540:	c6 45 d3 00          	movb   $0x0,-0x2d(%rbp)
  8004200544:	0f b6 45 d3          	movzbl -0x2d(%rbp),%eax
  8004200548:	8b 55 d4             	mov    -0x2c(%rbp),%edx
  800420054b:	ee                   	out    %al,(%dx)
  800420054c:	c7 45 cc f9 03 00 00 	movl   $0x3f9,-0x34(%rbp)
  8004200553:	c6 45 cb 01          	movb   $0x1,-0x35(%rbp)
  8004200557:	0f b6 45 cb          	movzbl -0x35(%rbp),%eax
  800420055b:	8b 55 cc             	mov    -0x34(%rbp),%edx
  800420055e:	ee                   	out    %al,(%dx)
  800420055f:	c7 45 c4 fd 03 00 00 	movl   $0x3fd,-0x3c(%rbp)

static __inline uint8_t
inb(int port)
{
	uint8_t data;
	__asm __volatile("inb %w1,%0" : "=a" (data) : "d" (port));
  8004200566:	8b 45 c4             	mov    -0x3c(%rbp),%eax
  8004200569:	89 c2                	mov    %eax,%edx
  800420056b:	ec                   	in     (%dx),%al
  800420056c:	88 45 c3             	mov    %al,-0x3d(%rbp)
	return data;
  800420056f:	0f b6 45 c3          	movzbl -0x3d(%rbp),%eax
	// Enable rcv interrupts
	outb(COM1+COM_IER, COM_IER_RDI);

	// Clear any preexisting overrun indications and interrupts
	// Serial port doesn't exist if COM_LSR returns 0xFF
	serial_exists = (inb(COM1+COM_LSR) != 0xFF);
  8004200573:	3c ff                	cmp    $0xff,%al
  8004200575:	0f 95 c2             	setne  %dl
  8004200578:	48 b8 a0 c6 21 04 80 	movabs $0x800421c6a0,%rax
  800420057f:	00 00 00 
  8004200582:	88 10                	mov    %dl,(%rax)
  8004200584:	c7 45 bc fa 03 00 00 	movl   $0x3fa,-0x44(%rbp)

static __inline uint8_t
inb(int port)
{
	uint8_t data;
	__asm __volatile("inb %w1,%0" : "=a" (data) : "d" (port));
  800420058b:	8b 45 bc             	mov    -0x44(%rbp),%eax
  800420058e:	89 c2                	mov    %eax,%edx
  8004200590:	ec                   	in     (%dx),%al
  8004200591:	88 45 bb             	mov    %al,-0x45(%rbp)
  8004200594:	c7 45 b4 f8 03 00 00 	movl   $0x3f8,-0x4c(%rbp)
  800420059b:	8b 45 b4             	mov    -0x4c(%rbp),%eax
  800420059e:	89 c2                	mov    %eax,%edx
  80042005a0:	ec                   	in     (%dx),%al
  80042005a1:	88 45 b3             	mov    %al,-0x4d(%rbp)
	(void) inb(COM1+COM_IIR);
	(void) inb(COM1+COM_RX);

}
  80042005a4:	c9                   	leaveq 
  80042005a5:	c3                   	retq   

00000080042005a6 <lpt_putc>:
// For information on PC parallel port programming, see the class References
// page.

static void
lpt_putc(int c)
{
  80042005a6:	55                   	push   %rbp
  80042005a7:	48 89 e5             	mov    %rsp,%rbp
  80042005aa:	48 83 ec 38          	sub    $0x38,%rsp
  80042005ae:	89 7d cc             	mov    %edi,-0x34(%rbp)
	int i;

	for (i = 0; !(inb(0x378+1) & 0x80) && i < 12800; i++)
  80042005b1:	c7 45 fc 00 00 00 00 	movl   $0x0,-0x4(%rbp)
  80042005b8:	eb 10                	jmp    80042005ca <lpt_putc+0x24>
		delay();
  80042005ba:	48 b8 b0 03 20 04 80 	movabs $0x80042003b0,%rax
  80042005c1:	00 00 00 
  80042005c4:	ff d0                	callq  *%rax
static void
lpt_putc(int c)
{
	int i;

	for (i = 0; !(inb(0x378+1) & 0x80) && i < 12800; i++)
  80042005c6:	83 45 fc 01          	addl   $0x1,-0x4(%rbp)
  80042005ca:	c7 45 f8 79 03 00 00 	movl   $0x379,-0x8(%rbp)
  80042005d1:	8b 45 f8             	mov    -0x8(%rbp),%eax
  80042005d4:	89 c2                	mov    %eax,%edx
  80042005d6:	ec                   	in     (%dx),%al
  80042005d7:	88 45 f7             	mov    %al,-0x9(%rbp)
	return data;
  80042005da:	0f b6 45 f7          	movzbl -0x9(%rbp),%eax
  80042005de:	84 c0                	test   %al,%al
  80042005e0:	78 09                	js     80042005eb <lpt_putc+0x45>
  80042005e2:	81 7d fc ff 31 00 00 	cmpl   $0x31ff,-0x4(%rbp)
  80042005e9:	7e cf                	jle    80042005ba <lpt_putc+0x14>
		delay();
	outb(0x378+0, c);
  80042005eb:	8b 45 cc             	mov    -0x34(%rbp),%eax
  80042005ee:	0f b6 c0             	movzbl %al,%eax
  80042005f1:	c7 45 f0 78 03 00 00 	movl   $0x378,-0x10(%rbp)
  80042005f8:	88 45 ef             	mov    %al,-0x11(%rbp)
}

static __inline void
outb(int port, uint8_t data)
{
	__asm __volatile("outb %0,%w1" : : "a" (data), "d" (port));
  80042005fb:	0f b6 45 ef          	movzbl -0x11(%rbp),%eax
  80042005ff:	8b 55 f0             	mov    -0x10(%rbp),%edx
  8004200602:	ee                   	out    %al,(%dx)
  8004200603:	c7 45 e8 7a 03 00 00 	movl   $0x37a,-0x18(%rbp)
  800420060a:	c6 45 e7 0d          	movb   $0xd,-0x19(%rbp)
  800420060e:	0f b6 45 e7          	movzbl -0x19(%rbp),%eax
  8004200612:	8b 55 e8             	mov    -0x18(%rbp),%edx
  8004200615:	ee                   	out    %al,(%dx)
  8004200616:	c7 45 e0 7a 03 00 00 	movl   $0x37a,-0x20(%rbp)
  800420061d:	c6 45 df 08          	movb   $0x8,-0x21(%rbp)
  8004200621:	0f b6 45 df          	movzbl -0x21(%rbp),%eax
  8004200625:	8b 55 e0             	mov    -0x20(%rbp),%edx
  8004200628:	ee                   	out    %al,(%dx)
	outb(0x378+2, 0x08|0x04|0x01);
	outb(0x378+2, 0x08);
}
  8004200629:	c9                   	leaveq 
  800420062a:	c3                   	retq   

000000800420062b <cga_init>:
static uint16_t *crt_buf;
static uint16_t crt_pos;

static void
cga_init(void)
{
  800420062b:	55                   	push   %rbp
  800420062c:	48 89 e5             	mov    %rsp,%rbp
  800420062f:	48 83 ec 30          	sub    $0x30,%rsp
	volatile uint16_t *cp;
	uint16_t was;
	unsigned pos;

	cp = (uint16_t*) (KERNBASE + CGA_BUF);
  8004200633:	48 b8 00 80 0b 04 80 	movabs $0x80040b8000,%rax
  800420063a:	00 00 00 
  800420063d:	48 89 45 f8          	mov    %rax,-0x8(%rbp)
	was = *cp;
  8004200641:	48 8b 45 f8          	mov    -0x8(%rbp),%rax
  8004200645:	0f b7 00             	movzwl (%rax),%eax
  8004200648:	66 89 45 f6          	mov    %ax,-0xa(%rbp)
	*cp = (uint16_t) 0xA55A;
  800420064c:	48 8b 45 f8          	mov    -0x8(%rbp),%rax
  8004200650:	66 c7 00 5a a5       	movw   $0xa55a,(%rax)
	if (*cp != 0xA55A) {
  8004200655:	48 8b 45 f8          	mov    -0x8(%rbp),%rax
  8004200659:	0f b7 00             	movzwl (%rax),%eax
  800420065c:	66 3d 5a a5          	cmp    $0xa55a,%ax
  8004200660:	74 20                	je     8004200682 <cga_init+0x57>
		cp = (uint16_t*) (KERNBASE + MONO_BUF);
  8004200662:	48 b8 00 00 0b 04 80 	movabs $0x80040b0000,%rax
  8004200669:	00 00 00 
  800420066c:	48 89 45 f8          	mov    %rax,-0x8(%rbp)
		addr_6845 = MONO_BASE;
  8004200670:	48 b8 a4 c6 21 04 80 	movabs $0x800421c6a4,%rax
  8004200677:	00 00 00 
  800420067a:	c7 00 b4 03 00 00    	movl   $0x3b4,(%rax)
  8004200680:	eb 1b                	jmp    800420069d <cga_init+0x72>
	} else {
		*cp = was;
  8004200682:	48 8b 45 f8          	mov    -0x8(%rbp),%rax
  8004200686:	0f b7 55 f6          	movzwl -0xa(%rbp),%edx
  800420068a:	66 89 10             	mov    %dx,(%rax)
		addr_6845 = CGA_BASE;
  800420068d:	48 b8 a4 c6 21 04 80 	movabs $0x800421c6a4,%rax
  8004200694:	00 00 00 
  8004200697:	c7 00 d4 03 00 00    	movl   $0x3d4,(%rax)
	}

	/* Extract cursor location */
	outb(addr_6845, 14);
  800420069d:	48 b8 a4 c6 21 04 80 	movabs $0x800421c6a4,%rax
  80042006a4:	00 00 00 
  80042006a7:	8b 00                	mov    (%rax),%eax
  80042006a9:	89 45 ec             	mov    %eax,-0x14(%rbp)
  80042006ac:	c6 45 eb 0e          	movb   $0xe,-0x15(%rbp)
  80042006b0:	0f b6 45 eb          	movzbl -0x15(%rbp),%eax
  80042006b4:	8b 55 ec             	mov    -0x14(%rbp),%edx
  80042006b7:	ee                   	out    %al,(%dx)
	pos = inb(addr_6845 + 1) << 8;
  80042006b8:	48 b8 a4 c6 21 04 80 	movabs $0x800421c6a4,%rax
  80042006bf:	00 00 00 
  80042006c2:	8b 00                	mov    (%rax),%eax
  80042006c4:	83 c0 01             	add    $0x1,%eax
  80042006c7:	89 45 e4             	mov    %eax,-0x1c(%rbp)

static __inline uint8_t
inb(int port)
{
	uint8_t data;
	__asm __volatile("inb %w1,%0" : "=a" (data) : "d" (port));
  80042006ca:	8b 45 e4             	mov    -0x1c(%rbp),%eax
  80042006cd:	89 c2                	mov    %eax,%edx
  80042006cf:	ec                   	in     (%dx),%al
  80042006d0:	88 45 e3             	mov    %al,-0x1d(%rbp)
	return data;
  80042006d3:	0f b6 45 e3          	movzbl -0x1d(%rbp),%eax
  80042006d7:	0f b6 c0             	movzbl %al,%eax
  80042006da:	c1 e0 08             	shl    $0x8,%eax
  80042006dd:	89 45 f0             	mov    %eax,-0x10(%rbp)
	outb(addr_6845, 15);
  80042006e0:	48 b8 a4 c6 21 04 80 	movabs $0x800421c6a4,%rax
  80042006e7:	00 00 00 
  80042006ea:	8b 00                	mov    (%rax),%eax
  80042006ec:	89 45 dc             	mov    %eax,-0x24(%rbp)
  80042006ef:	c6 45 db 0f          	movb   $0xf,-0x25(%rbp)
}

static __inline void
outb(int port, uint8_t data)
{
	__asm __volatile("outb %0,%w1" : : "a" (data), "d" (port));
  80042006f3:	0f b6 45 db          	movzbl -0x25(%rbp),%eax
  80042006f7:	8b 55 dc             	mov    -0x24(%rbp),%edx
  80042006fa:	ee                   	out    %al,(%dx)
	pos |= inb(addr_6845 + 1);
  80042006fb:	48 b8 a4 c6 21 04 80 	movabs $0x800421c6a4,%rax
  8004200702:	00 00 00 
  8004200705:	8b 00                	mov    (%rax),%eax
  8004200707:	83 c0 01             	add    $0x1,%eax
  800420070a:	89 45 d4             	mov    %eax,-0x2c(%rbp)

static __inline uint8_t
inb(int port)
{
	uint8_t data;
	__asm __volatile("inb %w1,%0" : "=a" (data) : "d" (port));
  800420070d:	8b 45 d4             	mov    -0x2c(%rbp),%eax
  8004200710:	89 c2                	mov    %eax,%edx
  8004200712:	ec                   	in     (%dx),%al
  8004200713:	88 45 d3             	mov    %al,-0x2d(%rbp)
	return data;
  8004200716:	0f b6 45 d3          	movzbl -0x2d(%rbp),%eax
  800420071a:	0f b6 c0             	movzbl %al,%eax
  800420071d:	09 45 f0             	or     %eax,-0x10(%rbp)

	crt_buf = (uint16_t*) cp;
  8004200720:	48 b8 a8 c6 21 04 80 	movabs $0x800421c6a8,%rax
  8004200727:	00 00 00 
  800420072a:	48 8b 55 f8          	mov    -0x8(%rbp),%rdx
  800420072e:	48 89 10             	mov    %rdx,(%rax)
	crt_pos = pos;
  8004200731:	8b 45 f0             	mov    -0x10(%rbp),%eax
  8004200734:	89 c2                	mov    %eax,%edx
  8004200736:	48 b8 b0 c6 21 04 80 	movabs $0x800421c6b0,%rax
  800420073d:	00 00 00 
  8004200740:	66 89 10             	mov    %dx,(%rax)
}
  8004200743:	c9                   	leaveq 
  8004200744:	c3                   	retq   

0000008004200745 <cga_putc>:



static void
cga_putc(int c)
{
  8004200745:	55                   	push   %rbp
  8004200746:	48 89 e5             	mov    %rsp,%rbp
  8004200749:	48 83 ec 40          	sub    $0x40,%rsp
  800420074d:	89 7d cc             	mov    %edi,-0x34(%rbp)
	// if no attribute given, then use black on white
	if (!(c & ~0xFF))
  8004200750:	8b 45 cc             	mov    -0x34(%rbp),%eax
  8004200753:	b0 00                	mov    $0x0,%al
  8004200755:	85 c0                	test   %eax,%eax
  8004200757:	75 07                	jne    8004200760 <cga_putc+0x1b>
		c |= 0x0700;
  8004200759:	81 4d cc 00 07 00 00 	orl    $0x700,-0x34(%rbp)

	switch (c & 0xff) {
  8004200760:	8b 45 cc             	mov    -0x34(%rbp),%eax
  8004200763:	0f b6 c0             	movzbl %al,%eax
  8004200766:	83 f8 09             	cmp    $0x9,%eax
  8004200769:	0f 84 f6 00 00 00    	je     8004200865 <cga_putc+0x120>
  800420076f:	83 f8 09             	cmp    $0x9,%eax
  8004200772:	7f 0a                	jg     800420077e <cga_putc+0x39>
  8004200774:	83 f8 08             	cmp    $0x8,%eax
  8004200777:	74 18                	je     8004200791 <cga_putc+0x4c>
  8004200779:	e9 3e 01 00 00       	jmpq   80042008bc <cga_putc+0x177>
  800420077e:	83 f8 0a             	cmp    $0xa,%eax
  8004200781:	74 75                	je     80042007f8 <cga_putc+0xb3>
  8004200783:	83 f8 0d             	cmp    $0xd,%eax
  8004200786:	0f 84 89 00 00 00    	je     8004200815 <cga_putc+0xd0>
  800420078c:	e9 2b 01 00 00       	jmpq   80042008bc <cga_putc+0x177>
	case '\b':
		if (crt_pos > 0) {
  8004200791:	48 b8 b0 c6 21 04 80 	movabs $0x800421c6b0,%rax
  8004200798:	00 00 00 
  800420079b:	0f b7 00             	movzwl (%rax),%eax
  800420079e:	66 85 c0             	test   %ax,%ax
  80042007a1:	74 50                	je     80042007f3 <cga_putc+0xae>
			crt_pos--;
  80042007a3:	48 b8 b0 c6 21 04 80 	movabs $0x800421c6b0,%rax
  80042007aa:	00 00 00 
  80042007ad:	0f b7 00             	movzwl (%rax),%eax
  80042007b0:	8d 50 ff             	lea    -0x1(%rax),%edx
  80042007b3:	48 b8 b0 c6 21 04 80 	movabs $0x800421c6b0,%rax
  80042007ba:	00 00 00 
  80042007bd:	66 89 10             	mov    %dx,(%rax)
			crt_buf[crt_pos] = (c & ~0xff) | ' ';
  80042007c0:	48 b8 a8 c6 21 04 80 	movabs $0x800421c6a8,%rax
  80042007c7:	00 00 00 
  80042007ca:	48 8b 10             	mov    (%rax),%rdx
  80042007cd:	48 b8 b0 c6 21 04 80 	movabs $0x800421c6b0,%rax
  80042007d4:	00 00 00 
  80042007d7:	0f b7 00             	movzwl (%rax),%eax
  80042007da:	0f b7 c0             	movzwl %ax,%eax
  80042007dd:	48 01 c0             	add    %rax,%rax
  80042007e0:	48 01 c2             	add    %rax,%rdx
  80042007e3:	8b 45 cc             	mov    -0x34(%rbp),%eax
  80042007e6:	b0 00                	mov    $0x0,%al
  80042007e8:	83 c8 20             	or     $0x20,%eax
  80042007eb:	66 89 02             	mov    %ax,(%rdx)
		}
		break;
  80042007ee:	e9 04 01 00 00       	jmpq   80042008f7 <cga_putc+0x1b2>
  80042007f3:	e9 ff 00 00 00       	jmpq   80042008f7 <cga_putc+0x1b2>
	case '\n':
		crt_pos += CRT_COLS;
  80042007f8:	48 b8 b0 c6 21 04 80 	movabs $0x800421c6b0,%rax
  80042007ff:	00 00 00 
  8004200802:	0f b7 00             	movzwl (%rax),%eax
  8004200805:	8d 50 50             	lea    0x50(%rax),%edx
  8004200808:	48 b8 b0 c6 21 04 80 	movabs $0x800421c6b0,%rax
  800420080f:	00 00 00 
  8004200812:	66 89 10             	mov    %dx,(%rax)
		/* fallthru */
	case '\r':
		crt_pos -= (crt_pos % CRT_COLS);
  8004200815:	48 b8 b0 c6 21 04 80 	movabs $0x800421c6b0,%rax
  800420081c:	00 00 00 
  800420081f:	0f b7 30             	movzwl (%rax),%esi
  8004200822:	48 b8 b0 c6 21 04 80 	movabs $0x800421c6b0,%rax
  8004200829:	00 00 00 
  800420082c:	0f b7 08             	movzwl (%rax),%ecx
  800420082f:	0f b7 c1             	movzwl %cx,%eax
  8004200832:	69 c0 cd cc 00 00    	imul   $0xcccd,%eax,%eax
  8004200838:	c1 e8 10             	shr    $0x10,%eax
  800420083b:	89 c2                	mov    %eax,%edx
  800420083d:	66 c1 ea 06          	shr    $0x6,%dx
  8004200841:	89 d0                	mov    %edx,%eax
  8004200843:	c1 e0 02             	shl    $0x2,%eax
  8004200846:	01 d0                	add    %edx,%eax
  8004200848:	c1 e0 04             	shl    $0x4,%eax
  800420084b:	29 c1                	sub    %eax,%ecx
  800420084d:	89 ca                	mov    %ecx,%edx
  800420084f:	29 d6                	sub    %edx,%esi
  8004200851:	89 f2                	mov    %esi,%edx
  8004200853:	48 b8 b0 c6 21 04 80 	movabs $0x800421c6b0,%rax
  800420085a:	00 00 00 
  800420085d:	66 89 10             	mov    %dx,(%rax)
		break;
  8004200860:	e9 92 00 00 00       	jmpq   80042008f7 <cga_putc+0x1b2>
	case '\t':
		cons_putc(' ');
  8004200865:	bf 20 00 00 00       	mov    $0x20,%edi
  800420086a:	48 b8 ba 0d 20 04 80 	movabs $0x8004200dba,%rax
  8004200871:	00 00 00 
  8004200874:	ff d0                	callq  *%rax
		cons_putc(' ');
  8004200876:	bf 20 00 00 00       	mov    $0x20,%edi
  800420087b:	48 b8 ba 0d 20 04 80 	movabs $0x8004200dba,%rax
  8004200882:	00 00 00 
  8004200885:	ff d0                	callq  *%rax
		cons_putc(' ');
  8004200887:	bf 20 00 00 00       	mov    $0x20,%edi
  800420088c:	48 b8 ba 0d 20 04 80 	movabs $0x8004200dba,%rax
  8004200893:	00 00 00 
  8004200896:	ff d0                	callq  *%rax
		cons_putc(' ');
  8004200898:	bf 20 00 00 00       	mov    $0x20,%edi
  800420089d:	48 b8 ba 0d 20 04 80 	movabs $0x8004200dba,%rax
  80042008a4:	00 00 00 
  80042008a7:	ff d0                	callq  *%rax
		cons_putc(' ');
  80042008a9:	bf 20 00 00 00       	mov    $0x20,%edi
  80042008ae:	48 b8 ba 0d 20 04 80 	movabs $0x8004200dba,%rax
  80042008b5:	00 00 00 
  80042008b8:	ff d0                	callq  *%rax
		break;
  80042008ba:	eb 3b                	jmp    80042008f7 <cga_putc+0x1b2>
	default:
		crt_buf[crt_pos++] = c;		/* write the character */
  80042008bc:	48 b8 a8 c6 21 04 80 	movabs $0x800421c6a8,%rax
  80042008c3:	00 00 00 
  80042008c6:	48 8b 30             	mov    (%rax),%rsi
  80042008c9:	48 b8 b0 c6 21 04 80 	movabs $0x800421c6b0,%rax
  80042008d0:	00 00 00 
  80042008d3:	0f b7 00             	movzwl (%rax),%eax
  80042008d6:	8d 48 01             	lea    0x1(%rax),%ecx
  80042008d9:	48 ba b0 c6 21 04 80 	movabs $0x800421c6b0,%rdx
  80042008e0:	00 00 00 
  80042008e3:	66 89 0a             	mov    %cx,(%rdx)
  80042008e6:	0f b7 c0             	movzwl %ax,%eax
  80042008e9:	48 01 c0             	add    %rax,%rax
  80042008ec:	48 8d 14 06          	lea    (%rsi,%rax,1),%rdx
  80042008f0:	8b 45 cc             	mov    -0x34(%rbp),%eax
  80042008f3:	66 89 02             	mov    %ax,(%rdx)
		break;
  80042008f6:	90                   	nop
	}

	// What is the purpose of this?
	if (crt_pos >= CRT_SIZE) {
  80042008f7:	48 b8 b0 c6 21 04 80 	movabs $0x800421c6b0,%rax
  80042008fe:	00 00 00 
  8004200901:	0f b7 00             	movzwl (%rax),%eax
  8004200904:	66 3d cf 07          	cmp    $0x7cf,%ax
  8004200908:	0f 86 89 00 00 00    	jbe    8004200997 <cga_putc+0x252>
		int i;

		memmove(crt_buf, crt_buf + CRT_COLS, (CRT_SIZE - CRT_COLS) * sizeof(uint16_t));
  800420090e:	48 b8 a8 c6 21 04 80 	movabs $0x800421c6a8,%rax
  8004200915:	00 00 00 
  8004200918:	48 8b 00             	mov    (%rax),%rax
  800420091b:	48 8d 88 a0 00 00 00 	lea    0xa0(%rax),%rcx
  8004200922:	48 b8 a8 c6 21 04 80 	movabs $0x800421c6a8,%rax
  8004200929:	00 00 00 
  800420092c:	48 8b 00             	mov    (%rax),%rax
  800420092f:	ba 00 0f 00 00       	mov    $0xf00,%edx
  8004200934:	48 89 ce             	mov    %rcx,%rsi
  8004200937:	48 89 c7             	mov    %rax,%rdi
  800420093a:	48 b8 d1 2f 20 04 80 	movabs $0x8004202fd1,%rax
  8004200941:	00 00 00 
  8004200944:	ff d0                	callq  *%rax
		for (i = CRT_SIZE - CRT_COLS; i < CRT_SIZE; i++)
  8004200946:	c7 45 fc 80 07 00 00 	movl   $0x780,-0x4(%rbp)
  800420094d:	eb 22                	jmp    8004200971 <cga_putc+0x22c>
			crt_buf[i] = 0x0700 | ' ';
  800420094f:	48 b8 a8 c6 21 04 80 	movabs $0x800421c6a8,%rax
  8004200956:	00 00 00 
  8004200959:	48 8b 00             	mov    (%rax),%rax
  800420095c:	8b 55 fc             	mov    -0x4(%rbp),%edx
  800420095f:	48 63 d2             	movslq %edx,%rdx
  8004200962:	48 01 d2             	add    %rdx,%rdx
  8004200965:	48 01 d0             	add    %rdx,%rax
  8004200968:	66 c7 00 20 07       	movw   $0x720,(%rax)
	// What is the purpose of this?
	if (crt_pos >= CRT_SIZE) {
		int i;

		memmove(crt_buf, crt_buf + CRT_COLS, (CRT_SIZE - CRT_COLS) * sizeof(uint16_t));
		for (i = CRT_SIZE - CRT_COLS; i < CRT_SIZE; i++)
  800420096d:	83 45 fc 01          	addl   $0x1,-0x4(%rbp)
  8004200971:	81 7d fc cf 07 00 00 	cmpl   $0x7cf,-0x4(%rbp)
  8004200978:	7e d5                	jle    800420094f <cga_putc+0x20a>
			crt_buf[i] = 0x0700 | ' ';
		crt_pos -= CRT_COLS;
  800420097a:	48 b8 b0 c6 21 04 80 	movabs $0x800421c6b0,%rax
  8004200981:	00 00 00 
  8004200984:	0f b7 00             	movzwl (%rax),%eax
  8004200987:	8d 50 b0             	lea    -0x50(%rax),%edx
  800420098a:	48 b8 b0 c6 21 04 80 	movabs $0x800421c6b0,%rax
  8004200991:	00 00 00 
  8004200994:	66 89 10             	mov    %dx,(%rax)
	}

	/* move that little blinky thing */
	outb(addr_6845, 14);
  8004200997:	48 b8 a4 c6 21 04 80 	movabs $0x800421c6a4,%rax
  800420099e:	00 00 00 
  80042009a1:	8b 00                	mov    (%rax),%eax
  80042009a3:	89 45 f8             	mov    %eax,-0x8(%rbp)
  80042009a6:	c6 45 f7 0e          	movb   $0xe,-0x9(%rbp)
}

static __inline void
outb(int port, uint8_t data)
{
	__asm __volatile("outb %0,%w1" : : "a" (data), "d" (port));
  80042009aa:	0f b6 45 f7          	movzbl -0x9(%rbp),%eax
  80042009ae:	8b 55 f8             	mov    -0x8(%rbp),%edx
  80042009b1:	ee                   	out    %al,(%dx)
	outb(addr_6845 + 1, crt_pos >> 8);
  80042009b2:	48 b8 b0 c6 21 04 80 	movabs $0x800421c6b0,%rax
  80042009b9:	00 00 00 
  80042009bc:	0f b7 00             	movzwl (%rax),%eax
  80042009bf:	66 c1 e8 08          	shr    $0x8,%ax
  80042009c3:	0f b6 c0             	movzbl %al,%eax
  80042009c6:	48 ba a4 c6 21 04 80 	movabs $0x800421c6a4,%rdx
  80042009cd:	00 00 00 
  80042009d0:	8b 12                	mov    (%rdx),%edx
  80042009d2:	83 c2 01             	add    $0x1,%edx
  80042009d5:	89 55 f0             	mov    %edx,-0x10(%rbp)
  80042009d8:	88 45 ef             	mov    %al,-0x11(%rbp)
  80042009db:	0f b6 45 ef          	movzbl -0x11(%rbp),%eax
  80042009df:	8b 55 f0             	mov    -0x10(%rbp),%edx
  80042009e2:	ee                   	out    %al,(%dx)
	outb(addr_6845, 15);
  80042009e3:	48 b8 a4 c6 21 04 80 	movabs $0x800421c6a4,%rax
  80042009ea:	00 00 00 
  80042009ed:	8b 00                	mov    (%rax),%eax
  80042009ef:	89 45 e8             	mov    %eax,-0x18(%rbp)
  80042009f2:	c6 45 e7 0f          	movb   $0xf,-0x19(%rbp)
  80042009f6:	0f b6 45 e7          	movzbl -0x19(%rbp),%eax
  80042009fa:	8b 55 e8             	mov    -0x18(%rbp),%edx
  80042009fd:	ee                   	out    %al,(%dx)
	outb(addr_6845 + 1, crt_pos);
  80042009fe:	48 b8 b0 c6 21 04 80 	movabs $0x800421c6b0,%rax
  8004200a05:	00 00 00 
  8004200a08:	0f b7 00             	movzwl (%rax),%eax
  8004200a0b:	0f b6 c0             	movzbl %al,%eax
  8004200a0e:	48 ba a4 c6 21 04 80 	movabs $0x800421c6a4,%rdx
  8004200a15:	00 00 00 
  8004200a18:	8b 12                	mov    (%rdx),%edx
  8004200a1a:	83 c2 01             	add    $0x1,%edx
  8004200a1d:	89 55 e0             	mov    %edx,-0x20(%rbp)
  8004200a20:	88 45 df             	mov    %al,-0x21(%rbp)
  8004200a23:	0f b6 45 df          	movzbl -0x21(%rbp),%eax
  8004200a27:	8b 55 e0             	mov    -0x20(%rbp),%edx
  8004200a2a:	ee                   	out    %al,(%dx)
}
  8004200a2b:	c9                   	leaveq 
  8004200a2c:	c3                   	retq   

0000008004200a2d <kbd_proc_data>:
 * Get data from the keyboard.  If we finish a character, return it.  Else 0.
 * Return -1 if no data.
 */
static int
kbd_proc_data(void)
{
  8004200a2d:	55                   	push   %rbp
  8004200a2e:	48 89 e5             	mov    %rsp,%rbp
  8004200a31:	48 83 ec 20          	sub    $0x20,%rsp
  8004200a35:	c7 45 f4 64 00 00 00 	movl   $0x64,-0xc(%rbp)

static __inline uint8_t
inb(int port)
{
	uint8_t data;
	__asm __volatile("inb %w1,%0" : "=a" (data) : "d" (port));
  8004200a3c:	8b 45 f4             	mov    -0xc(%rbp),%eax
  8004200a3f:	89 c2                	mov    %eax,%edx
  8004200a41:	ec                   	in     (%dx),%al
  8004200a42:	88 45 f3             	mov    %al,-0xd(%rbp)
	return data;
  8004200a45:	0f b6 45 f3          	movzbl -0xd(%rbp),%eax
	int c;
	uint8_t data;
	static uint32_t shift;
	int r;
	if ((inb(KBSTATP) & KBS_DIB) == 0)
  8004200a49:	0f b6 c0             	movzbl %al,%eax
  8004200a4c:	83 e0 01             	and    $0x1,%eax
  8004200a4f:	85 c0                	test   %eax,%eax
  8004200a51:	75 0a                	jne    8004200a5d <kbd_proc_data+0x30>
		return -1;
  8004200a53:	b8 ff ff ff ff       	mov    $0xffffffff,%eax
  8004200a58:	e9 fc 01 00 00       	jmpq   8004200c59 <kbd_proc_data+0x22c>
  8004200a5d:	c7 45 ec 60 00 00 00 	movl   $0x60,-0x14(%rbp)

static __inline uint8_t
inb(int port)
{
	uint8_t data;
	__asm __volatile("inb %w1,%0" : "=a" (data) : "d" (port));
  8004200a64:	8b 45 ec             	mov    -0x14(%rbp),%eax
  8004200a67:	89 c2                	mov    %eax,%edx
  8004200a69:	ec                   	in     (%dx),%al
  8004200a6a:	88 45 eb             	mov    %al,-0x15(%rbp)
	return data;
  8004200a6d:	0f b6 45 eb          	movzbl -0x15(%rbp),%eax

	data = inb(KBDATAP);
  8004200a71:	88 45 fb             	mov    %al,-0x5(%rbp)

	if (data == 0xE0) {
  8004200a74:	80 7d fb e0          	cmpb   $0xe0,-0x5(%rbp)
  8004200a78:	75 27                	jne    8004200aa1 <kbd_proc_data+0x74>
		// E0 escape character
		shift |= E0ESC;
  8004200a7a:	48 b8 c8 c8 21 04 80 	movabs $0x800421c8c8,%rax
  8004200a81:	00 00 00 
  8004200a84:	8b 00                	mov    (%rax),%eax
  8004200a86:	83 c8 40             	or     $0x40,%eax
  8004200a89:	89 c2                	mov    %eax,%edx
  8004200a8b:	48 b8 c8 c8 21 04 80 	movabs $0x800421c8c8,%rax
  8004200a92:	00 00 00 
  8004200a95:	89 10                	mov    %edx,(%rax)
		return 0;
  8004200a97:	b8 00 00 00 00       	mov    $0x0,%eax
  8004200a9c:	e9 b8 01 00 00       	jmpq   8004200c59 <kbd_proc_data+0x22c>
	} else if (data & 0x80) {
  8004200aa1:	0f b6 45 fb          	movzbl -0x5(%rbp),%eax
  8004200aa5:	84 c0                	test   %al,%al
  8004200aa7:	79 65                	jns    8004200b0e <kbd_proc_data+0xe1>
		// Key released
		data = (shift & E0ESC ? data : data & 0x7F);
  8004200aa9:	48 b8 c8 c8 21 04 80 	movabs $0x800421c8c8,%rax
  8004200ab0:	00 00 00 
  8004200ab3:	8b 00                	mov    (%rax),%eax
  8004200ab5:	83 e0 40             	and    $0x40,%eax
  8004200ab8:	85 c0                	test   %eax,%eax
  8004200aba:	75 09                	jne    8004200ac5 <kbd_proc_data+0x98>
  8004200abc:	0f b6 45 fb          	movzbl -0x5(%rbp),%eax
  8004200ac0:	83 e0 7f             	and    $0x7f,%eax
  8004200ac3:	eb 04                	jmp    8004200ac9 <kbd_proc_data+0x9c>
  8004200ac5:	0f b6 45 fb          	movzbl -0x5(%rbp),%eax
  8004200ac9:	88 45 fb             	mov    %al,-0x5(%rbp)
		shift &= ~(shiftcode[data] | E0ESC);
  8004200acc:	0f b6 45 fb          	movzbl -0x5(%rbp),%eax
  8004200ad0:	48 ba 60 c0 21 04 80 	movabs $0x800421c060,%rdx
  8004200ad7:	00 00 00 
  8004200ada:	48 98                	cltq   
  8004200adc:	0f b6 04 02          	movzbl (%rdx,%rax,1),%eax
  8004200ae0:	83 c8 40             	or     $0x40,%eax
  8004200ae3:	0f b6 c0             	movzbl %al,%eax
  8004200ae6:	f7 d0                	not    %eax
  8004200ae8:	89 c2                	mov    %eax,%edx
  8004200aea:	48 b8 c8 c8 21 04 80 	movabs $0x800421c8c8,%rax
  8004200af1:	00 00 00 
  8004200af4:	8b 00                	mov    (%rax),%eax
  8004200af6:	21 c2                	and    %eax,%edx
  8004200af8:	48 b8 c8 c8 21 04 80 	movabs $0x800421c8c8,%rax
  8004200aff:	00 00 00 
  8004200b02:	89 10                	mov    %edx,(%rax)
		return 0;
  8004200b04:	b8 00 00 00 00       	mov    $0x0,%eax
  8004200b09:	e9 4b 01 00 00       	jmpq   8004200c59 <kbd_proc_data+0x22c>
	} else if (shift & E0ESC) {
  8004200b0e:	48 b8 c8 c8 21 04 80 	movabs $0x800421c8c8,%rax
  8004200b15:	00 00 00 
  8004200b18:	8b 00                	mov    (%rax),%eax
  8004200b1a:	83 e0 40             	and    $0x40,%eax
  8004200b1d:	85 c0                	test   %eax,%eax
  8004200b1f:	74 21                	je     8004200b42 <kbd_proc_data+0x115>
		// Last character was an E0 escape; or with 0x80
		data |= 0x80;
  8004200b21:	80 4d fb 80          	orb    $0x80,-0x5(%rbp)
		shift &= ~E0ESC;
  8004200b25:	48 b8 c8 c8 21 04 80 	movabs $0x800421c8c8,%rax
  8004200b2c:	00 00 00 
  8004200b2f:	8b 00                	mov    (%rax),%eax
  8004200b31:	83 e0 bf             	and    $0xffffffbf,%eax
  8004200b34:	89 c2                	mov    %eax,%edx
  8004200b36:	48 b8 c8 c8 21 04 80 	movabs $0x800421c8c8,%rax
  8004200b3d:	00 00 00 
  8004200b40:	89 10                	mov    %edx,(%rax)
	}

	shift |= shiftcode[data];
  8004200b42:	0f b6 45 fb          	movzbl -0x5(%rbp),%eax
  8004200b46:	48 ba 60 c0 21 04 80 	movabs $0x800421c060,%rdx
  8004200b4d:	00 00 00 
  8004200b50:	48 98                	cltq   
  8004200b52:	0f b6 04 02          	movzbl (%rdx,%rax,1),%eax
  8004200b56:	0f b6 d0             	movzbl %al,%edx
  8004200b59:	48 b8 c8 c8 21 04 80 	movabs $0x800421c8c8,%rax
  8004200b60:	00 00 00 
  8004200b63:	8b 00                	mov    (%rax),%eax
  8004200b65:	09 c2                	or     %eax,%edx
  8004200b67:	48 b8 c8 c8 21 04 80 	movabs $0x800421c8c8,%rax
  8004200b6e:	00 00 00 
  8004200b71:	89 10                	mov    %edx,(%rax)
	shift ^= togglecode[data];
  8004200b73:	0f b6 45 fb          	movzbl -0x5(%rbp),%eax
  8004200b77:	48 ba 60 c1 21 04 80 	movabs $0x800421c160,%rdx
  8004200b7e:	00 00 00 
  8004200b81:	48 98                	cltq   
  8004200b83:	0f b6 04 02          	movzbl (%rdx,%rax,1),%eax
  8004200b87:	0f b6 d0             	movzbl %al,%edx
  8004200b8a:	48 b8 c8 c8 21 04 80 	movabs $0x800421c8c8,%rax
  8004200b91:	00 00 00 
  8004200b94:	8b 00                	mov    (%rax),%eax
  8004200b96:	31 c2                	xor    %eax,%edx
  8004200b98:	48 b8 c8 c8 21 04 80 	movabs $0x800421c8c8,%rax
  8004200b9f:	00 00 00 
  8004200ba2:	89 10                	mov    %edx,(%rax)

	c = charcode[shift & (CTL | SHIFT)][data];
  8004200ba4:	48 b8 c8 c8 21 04 80 	movabs $0x800421c8c8,%rax
  8004200bab:	00 00 00 
  8004200bae:	8b 00                	mov    (%rax),%eax
  8004200bb0:	83 e0 03             	and    $0x3,%eax
  8004200bb3:	89 c2                	mov    %eax,%edx
  8004200bb5:	48 b8 60 c5 21 04 80 	movabs $0x800421c560,%rax
  8004200bbc:	00 00 00 
  8004200bbf:	89 d2                	mov    %edx,%edx
  8004200bc1:	48 8b 14 d0          	mov    (%rax,%rdx,8),%rdx
  8004200bc5:	0f b6 45 fb          	movzbl -0x5(%rbp),%eax
  8004200bc9:	48 01 d0             	add    %rdx,%rax
  8004200bcc:	0f b6 00             	movzbl (%rax),%eax
  8004200bcf:	0f b6 c0             	movzbl %al,%eax
  8004200bd2:	89 45 fc             	mov    %eax,-0x4(%rbp)
	if (shift & CAPSLOCK) {
  8004200bd5:	48 b8 c8 c8 21 04 80 	movabs $0x800421c8c8,%rax
  8004200bdc:	00 00 00 
  8004200bdf:	8b 00                	mov    (%rax),%eax
  8004200be1:	83 e0 08             	and    $0x8,%eax
  8004200be4:	85 c0                	test   %eax,%eax
  8004200be6:	74 22                	je     8004200c0a <kbd_proc_data+0x1dd>
		if ('a' <= c && c <= 'z')
  8004200be8:	83 7d fc 60          	cmpl   $0x60,-0x4(%rbp)
  8004200bec:	7e 0c                	jle    8004200bfa <kbd_proc_data+0x1cd>
  8004200bee:	83 7d fc 7a          	cmpl   $0x7a,-0x4(%rbp)
  8004200bf2:	7f 06                	jg     8004200bfa <kbd_proc_data+0x1cd>
			c += 'A' - 'a';
  8004200bf4:	83 6d fc 20          	subl   $0x20,-0x4(%rbp)
  8004200bf8:	eb 10                	jmp    8004200c0a <kbd_proc_data+0x1dd>
		else if ('A' <= c && c <= 'Z')
  8004200bfa:	83 7d fc 40          	cmpl   $0x40,-0x4(%rbp)
  8004200bfe:	7e 0a                	jle    8004200c0a <kbd_proc_data+0x1dd>
  8004200c00:	83 7d fc 5a          	cmpl   $0x5a,-0x4(%rbp)
  8004200c04:	7f 04                	jg     8004200c0a <kbd_proc_data+0x1dd>
			c += 'a' - 'A';
  8004200c06:	83 45 fc 20          	addl   $0x20,-0x4(%rbp)
	}

	// Process special keys
	// Ctrl-Alt-Del: reboot
	if (!(~shift & (CTL | ALT)) && c == KEY_DEL) {
  8004200c0a:	48 b8 c8 c8 21 04 80 	movabs $0x800421c8c8,%rax
  8004200c11:	00 00 00 
  8004200c14:	8b 00                	mov    (%rax),%eax
  8004200c16:	f7 d0                	not    %eax
  8004200c18:	83 e0 06             	and    $0x6,%eax
  8004200c1b:	85 c0                	test   %eax,%eax
  8004200c1d:	75 37                	jne    8004200c56 <kbd_proc_data+0x229>
  8004200c1f:	81 7d fc e9 00 00 00 	cmpl   $0xe9,-0x4(%rbp)
  8004200c26:	75 2e                	jne    8004200c56 <kbd_proc_data+0x229>
		cprintf("Rebooting!\n");
  8004200c28:	48 bf c6 93 20 04 80 	movabs $0x80042093c6,%rdi
  8004200c2f:	00 00 00 
  8004200c32:	b8 00 00 00 00       	mov    $0x0,%eax
  8004200c37:	48 ba 09 14 20 04 80 	movabs $0x8004201409,%rdx
  8004200c3e:	00 00 00 
  8004200c41:	ff d2                	callq  *%rdx
  8004200c43:	c7 45 e4 92 00 00 00 	movl   $0x92,-0x1c(%rbp)
  8004200c4a:	c6 45 e3 03          	movb   $0x3,-0x1d(%rbp)
}

static __inline void
outb(int port, uint8_t data)
{
	__asm __volatile("outb %0,%w1" : : "a" (data), "d" (port));
  8004200c4e:	0f b6 45 e3          	movzbl -0x1d(%rbp),%eax
  8004200c52:	8b 55 e4             	mov    -0x1c(%rbp),%edx
  8004200c55:	ee                   	out    %al,(%dx)
		outb(0x92, 0x3); // courtesy of Chris Frost
	}
	return c;
  8004200c56:	8b 45 fc             	mov    -0x4(%rbp),%eax
}
  8004200c59:	c9                   	leaveq 
  8004200c5a:	c3                   	retq   

0000008004200c5b <kbd_intr>:

void
kbd_intr(void)
{
  8004200c5b:	55                   	push   %rbp
  8004200c5c:	48 89 e5             	mov    %rsp,%rbp
	cons_intr(kbd_proc_data);
  8004200c5f:	48 bf 2d 0a 20 04 80 	movabs $0x8004200a2d,%rdi
  8004200c66:	00 00 00 
  8004200c69:	48 b8 7d 0c 20 04 80 	movabs $0x8004200c7d,%rax
  8004200c70:	00 00 00 
  8004200c73:	ff d0                	callq  *%rax
}
  8004200c75:	5d                   	pop    %rbp
  8004200c76:	c3                   	retq   

0000008004200c77 <kbd_init>:

static void
kbd_init(void)
{
  8004200c77:	55                   	push   %rbp
  8004200c78:	48 89 e5             	mov    %rsp,%rbp
}
  8004200c7b:	5d                   	pop    %rbp
  8004200c7c:	c3                   	retq   

0000008004200c7d <cons_intr>:

// called by device interrupt routines to feed input characters
// into the circular console input buffer.
static void
cons_intr(int (*proc)(void))
{
  8004200c7d:	55                   	push   %rbp
  8004200c7e:	48 89 e5             	mov    %rsp,%rbp
  8004200c81:	48 83 ec 20          	sub    $0x20,%rsp
  8004200c85:	48 89 7d e8          	mov    %rdi,-0x18(%rbp)
	int c;

	while ((c = (*proc)()) != -1) {
  8004200c89:	eb 6a                	jmp    8004200cf5 <cons_intr+0x78>
		if (c == 0)
  8004200c8b:	83 7d fc 00          	cmpl   $0x0,-0x4(%rbp)
  8004200c8f:	75 02                	jne    8004200c93 <cons_intr+0x16>
			continue;
  8004200c91:	eb 62                	jmp    8004200cf5 <cons_intr+0x78>
		cons.buf[cons.wpos++] = c;
  8004200c93:	48 b8 c0 c6 21 04 80 	movabs $0x800421c6c0,%rax
  8004200c9a:	00 00 00 
  8004200c9d:	8b 80 04 02 00 00    	mov    0x204(%rax),%eax
  8004200ca3:	8d 48 01             	lea    0x1(%rax),%ecx
  8004200ca6:	48 ba c0 c6 21 04 80 	movabs $0x800421c6c0,%rdx
  8004200cad:	00 00 00 
  8004200cb0:	89 8a 04 02 00 00    	mov    %ecx,0x204(%rdx)
  8004200cb6:	8b 55 fc             	mov    -0x4(%rbp),%edx
  8004200cb9:	89 d1                	mov    %edx,%ecx
  8004200cbb:	48 ba c0 c6 21 04 80 	movabs $0x800421c6c0,%rdx
  8004200cc2:	00 00 00 
  8004200cc5:	89 c0                	mov    %eax,%eax
  8004200cc7:	88 0c 02             	mov    %cl,(%rdx,%rax,1)
		if (cons.wpos == CONSBUFSIZE)
  8004200cca:	48 b8 c0 c6 21 04 80 	movabs $0x800421c6c0,%rax
  8004200cd1:	00 00 00 
  8004200cd4:	8b 80 04 02 00 00    	mov    0x204(%rax),%eax
  8004200cda:	3d 00 02 00 00       	cmp    $0x200,%eax
  8004200cdf:	75 14                	jne    8004200cf5 <cons_intr+0x78>
			cons.wpos = 0;
  8004200ce1:	48 b8 c0 c6 21 04 80 	movabs $0x800421c6c0,%rax
  8004200ce8:	00 00 00 
  8004200ceb:	c7 80 04 02 00 00 00 	movl   $0x0,0x204(%rax)
  8004200cf2:	00 00 00 
static void
cons_intr(int (*proc)(void))
{
	int c;

	while ((c = (*proc)()) != -1) {
  8004200cf5:	48 8b 45 e8          	mov    -0x18(%rbp),%rax
  8004200cf9:	ff d0                	callq  *%rax
  8004200cfb:	89 45 fc             	mov    %eax,-0x4(%rbp)
  8004200cfe:	83 7d fc ff          	cmpl   $0xffffffff,-0x4(%rbp)
  8004200d02:	75 87                	jne    8004200c8b <cons_intr+0xe>
			continue;
		cons.buf[cons.wpos++] = c;
		if (cons.wpos == CONSBUFSIZE)
			cons.wpos = 0;
	}
}
  8004200d04:	c9                   	leaveq 
  8004200d05:	c3                   	retq   

0000008004200d06 <cons_getc>:

// return the next input character from the console, or 0 if none waiting
int
cons_getc(void)
{
  8004200d06:	55                   	push   %rbp
  8004200d07:	48 89 e5             	mov    %rsp,%rbp
  8004200d0a:	48 83 ec 10          	sub    $0x10,%rsp
	int c;

	// poll for any pending input characters,
	// so that this function works even when interrupts are disabled
	// (e.g., when called from the kernel monitor).
	serial_intr();
  8004200d0e:	48 b8 40 04 20 04 80 	movabs $0x8004200440,%rax
  8004200d15:	00 00 00 
  8004200d18:	ff d0                	callq  *%rax
	kbd_intr();
  8004200d1a:	48 b8 5b 0c 20 04 80 	movabs $0x8004200c5b,%rax
  8004200d21:	00 00 00 
  8004200d24:	ff d0                	callq  *%rax

	// grab the next character from the input buffer.
	if (cons.rpos != cons.wpos) {
  8004200d26:	48 b8 c0 c6 21 04 80 	movabs $0x800421c6c0,%rax
  8004200d2d:	00 00 00 
  8004200d30:	8b 90 00 02 00 00    	mov    0x200(%rax),%edx
  8004200d36:	48 b8 c0 c6 21 04 80 	movabs $0x800421c6c0,%rax
  8004200d3d:	00 00 00 
  8004200d40:	8b 80 04 02 00 00    	mov    0x204(%rax),%eax
  8004200d46:	39 c2                	cmp    %eax,%edx
  8004200d48:	74 69                	je     8004200db3 <cons_getc+0xad>
		c = cons.buf[cons.rpos++];
  8004200d4a:	48 b8 c0 c6 21 04 80 	movabs $0x800421c6c0,%rax
  8004200d51:	00 00 00 
  8004200d54:	8b 80 00 02 00 00    	mov    0x200(%rax),%eax
  8004200d5a:	8d 48 01             	lea    0x1(%rax),%ecx
  8004200d5d:	48 ba c0 c6 21 04 80 	movabs $0x800421c6c0,%rdx
  8004200d64:	00 00 00 
  8004200d67:	89 8a 00 02 00 00    	mov    %ecx,0x200(%rdx)
  8004200d6d:	48 ba c0 c6 21 04 80 	movabs $0x800421c6c0,%rdx
  8004200d74:	00 00 00 
  8004200d77:	89 c0                	mov    %eax,%eax
  8004200d79:	0f b6 04 02          	movzbl (%rdx,%rax,1),%eax
  8004200d7d:	0f b6 c0             	movzbl %al,%eax
  8004200d80:	89 45 fc             	mov    %eax,-0x4(%rbp)
		if (cons.rpos == CONSBUFSIZE)
  8004200d83:	48 b8 c0 c6 21 04 80 	movabs $0x800421c6c0,%rax
  8004200d8a:	00 00 00 
  8004200d8d:	8b 80 00 02 00 00    	mov    0x200(%rax),%eax
  8004200d93:	3d 00 02 00 00       	cmp    $0x200,%eax
  8004200d98:	75 14                	jne    8004200dae <cons_getc+0xa8>
			cons.rpos = 0;
  8004200d9a:	48 b8 c0 c6 21 04 80 	movabs $0x800421c6c0,%rax
  8004200da1:	00 00 00 
  8004200da4:	c7 80 00 02 00 00 00 	movl   $0x0,0x200(%rax)
  8004200dab:	00 00 00 
		return c;
  8004200dae:	8b 45 fc             	mov    -0x4(%rbp),%eax
  8004200db1:	eb 05                	jmp    8004200db8 <cons_getc+0xb2>
	}
	return 0;
  8004200db3:	b8 00 00 00 00       	mov    $0x0,%eax
}
  8004200db8:	c9                   	leaveq 
  8004200db9:	c3                   	retq   

0000008004200dba <cons_putc>:

// output a character to the console
static void
cons_putc(int c)
{
  8004200dba:	55                   	push   %rbp
  8004200dbb:	48 89 e5             	mov    %rsp,%rbp
  8004200dbe:	48 83 ec 10          	sub    $0x10,%rsp
  8004200dc2:	89 7d fc             	mov    %edi,-0x4(%rbp)
	serial_putc(c);
  8004200dc5:	8b 45 fc             	mov    -0x4(%rbp),%eax
  8004200dc8:	89 c7                	mov    %eax,%edi
  8004200dca:	48 b8 6d 04 20 04 80 	movabs $0x800420046d,%rax
  8004200dd1:	00 00 00 
  8004200dd4:	ff d0                	callq  *%rax
	lpt_putc(c);
  8004200dd6:	8b 45 fc             	mov    -0x4(%rbp),%eax
  8004200dd9:	89 c7                	mov    %eax,%edi
  8004200ddb:	48 b8 a6 05 20 04 80 	movabs $0x80042005a6,%rax
  8004200de2:	00 00 00 
  8004200de5:	ff d0                	callq  *%rax
	cga_putc(c);
  8004200de7:	8b 45 fc             	mov    -0x4(%rbp),%eax
  8004200dea:	89 c7                	mov    %eax,%edi
  8004200dec:	48 b8 45 07 20 04 80 	movabs $0x8004200745,%rax
  8004200df3:	00 00 00 
  8004200df6:	ff d0                	callq  *%rax
}
  8004200df8:	c9                   	leaveq 
  8004200df9:	c3                   	retq   

0000008004200dfa <cons_init>:

// initialize the console devices
void
cons_init(void)
{
  8004200dfa:	55                   	push   %rbp
  8004200dfb:	48 89 e5             	mov    %rsp,%rbp
	cga_init();
  8004200dfe:	48 b8 2b 06 20 04 80 	movabs $0x800420062b,%rax
  8004200e05:	00 00 00 
  8004200e08:	ff d0                	callq  *%rax
	kbd_init();
  8004200e0a:	48 b8 77 0c 20 04 80 	movabs $0x8004200c77,%rax
  8004200e11:	00 00 00 
  8004200e14:	ff d0                	callq  *%rax
	serial_init();
  8004200e16:	48 b8 d2 04 20 04 80 	movabs $0x80042004d2,%rax
  8004200e1d:	00 00 00 
  8004200e20:	ff d0                	callq  *%rax

	if (!serial_exists)
  8004200e22:	48 b8 a0 c6 21 04 80 	movabs $0x800421c6a0,%rax
  8004200e29:	00 00 00 
  8004200e2c:	0f b6 00             	movzbl (%rax),%eax
  8004200e2f:	83 f0 01             	xor    $0x1,%eax
  8004200e32:	84 c0                	test   %al,%al
  8004200e34:	74 1b                	je     8004200e51 <cons_init+0x57>
		cprintf("Serial port does not exist!\n");
  8004200e36:	48 bf d2 93 20 04 80 	movabs $0x80042093d2,%rdi
  8004200e3d:	00 00 00 
  8004200e40:	b8 00 00 00 00       	mov    $0x0,%eax
  8004200e45:	48 ba 09 14 20 04 80 	movabs $0x8004201409,%rdx
  8004200e4c:	00 00 00 
  8004200e4f:	ff d2                	callq  *%rdx
}
  8004200e51:	5d                   	pop    %rbp
  8004200e52:	c3                   	retq   

0000008004200e53 <cputchar>:

// `High'-level console I/O.  Used by readline and cprintf.

void
cputchar(int c)
{
  8004200e53:	55                   	push   %rbp
  8004200e54:	48 89 e5             	mov    %rsp,%rbp
  8004200e57:	48 83 ec 10          	sub    $0x10,%rsp
  8004200e5b:	89 7d fc             	mov    %edi,-0x4(%rbp)
	cons_putc(c);
  8004200e5e:	8b 45 fc             	mov    -0x4(%rbp),%eax
  8004200e61:	89 c7                	mov    %eax,%edi
  8004200e63:	48 b8 ba 0d 20 04 80 	movabs $0x8004200dba,%rax
  8004200e6a:	00 00 00 
  8004200e6d:	ff d0                	callq  *%rax
}
  8004200e6f:	c9                   	leaveq 
  8004200e70:	c3                   	retq   

0000008004200e71 <getchar>:

int
getchar(void)
{
  8004200e71:	55                   	push   %rbp
  8004200e72:	48 89 e5             	mov    %rsp,%rbp
  8004200e75:	48 83 ec 10          	sub    $0x10,%rsp
	int c;

	while ((c = cons_getc()) == 0)
  8004200e79:	48 b8 06 0d 20 04 80 	movabs $0x8004200d06,%rax
  8004200e80:	00 00 00 
  8004200e83:	ff d0                	callq  *%rax
  8004200e85:	89 45 fc             	mov    %eax,-0x4(%rbp)
  8004200e88:	83 7d fc 00          	cmpl   $0x0,-0x4(%rbp)
  8004200e8c:	74 eb                	je     8004200e79 <getchar+0x8>
		/* do nothing */;
	return c;
  8004200e8e:	8b 45 fc             	mov    -0x4(%rbp),%eax
}
  8004200e91:	c9                   	leaveq 
  8004200e92:	c3                   	retq   

0000008004200e93 <iscons>:

int
iscons(int fdnum)
{
  8004200e93:	55                   	push   %rbp
  8004200e94:	48 89 e5             	mov    %rsp,%rbp
  8004200e97:	48 83 ec 04          	sub    $0x4,%rsp
  8004200e9b:	89 7d fc             	mov    %edi,-0x4(%rbp)
	// used by readline
	return 1;
  8004200e9e:	b8 01 00 00 00       	mov    $0x1,%eax
}
  8004200ea3:	c9                   	leaveq 
  8004200ea4:	c3                   	retq   

0000008004200ea5 <mon_help>:

/***** Implementations of basic kernel monitor commands *****/

int
mon_help(int argc, char **argv, struct Trapframe *tf)
{
  8004200ea5:	55                   	push   %rbp
  8004200ea6:	48 89 e5             	mov    %rsp,%rbp
  8004200ea9:	48 83 ec 30          	sub    $0x30,%rsp
  8004200ead:	89 7d ec             	mov    %edi,-0x14(%rbp)
  8004200eb0:	48 89 75 e0          	mov    %rsi,-0x20(%rbp)
  8004200eb4:	48 89 55 d8          	mov    %rdx,-0x28(%rbp)
	int i;

	for (i = 0; i < NCOMMANDS; i++)
  8004200eb8:	c7 45 fc 00 00 00 00 	movl   $0x0,-0x4(%rbp)
  8004200ebf:	eb 6c                	jmp    8004200f2d <mon_help+0x88>
		cprintf("%s - %s\n", commands[i].name, commands[i].desc);
  8004200ec1:	48 b9 80 c5 21 04 80 	movabs $0x800421c580,%rcx
  8004200ec8:	00 00 00 
  8004200ecb:	8b 45 fc             	mov    -0x4(%rbp),%eax
  8004200ece:	48 63 d0             	movslq %eax,%rdx
  8004200ed1:	48 89 d0             	mov    %rdx,%rax
  8004200ed4:	48 01 c0             	add    %rax,%rax
  8004200ed7:	48 01 d0             	add    %rdx,%rax
  8004200eda:	48 c1 e0 03          	shl    $0x3,%rax
  8004200ede:	48 01 c8             	add    %rcx,%rax
  8004200ee1:	48 8b 48 08          	mov    0x8(%rax),%rcx
  8004200ee5:	48 be 80 c5 21 04 80 	movabs $0x800421c580,%rsi
  8004200eec:	00 00 00 
  8004200eef:	8b 45 fc             	mov    -0x4(%rbp),%eax
  8004200ef2:	48 63 d0             	movslq %eax,%rdx
  8004200ef5:	48 89 d0             	mov    %rdx,%rax
  8004200ef8:	48 01 c0             	add    %rax,%rax
  8004200efb:	48 01 d0             	add    %rdx,%rax
  8004200efe:	48 c1 e0 03          	shl    $0x3,%rax
  8004200f02:	48 01 f0             	add    %rsi,%rax
  8004200f05:	48 8b 00             	mov    (%rax),%rax
  8004200f08:	48 89 ca             	mov    %rcx,%rdx
  8004200f0b:	48 89 c6             	mov    %rax,%rsi
  8004200f0e:	48 bf 45 94 20 04 80 	movabs $0x8004209445,%rdi
  8004200f15:	00 00 00 
  8004200f18:	b8 00 00 00 00       	mov    $0x0,%eax
  8004200f1d:	48 b9 09 14 20 04 80 	movabs $0x8004201409,%rcx
  8004200f24:	00 00 00 
  8004200f27:	ff d1                	callq  *%rcx
int
mon_help(int argc, char **argv, struct Trapframe *tf)
{
	int i;

	for (i = 0; i < NCOMMANDS; i++)
  8004200f29:	83 45 fc 01          	addl   $0x1,-0x4(%rbp)
  8004200f2d:	8b 45 fc             	mov    -0x4(%rbp),%eax
  8004200f30:	83 f8 01             	cmp    $0x1,%eax
  8004200f33:	76 8c                	jbe    8004200ec1 <mon_help+0x1c>
		cprintf("%s - %s\n", commands[i].name, commands[i].desc);
	return 0;
  8004200f35:	b8 00 00 00 00       	mov    $0x0,%eax
}
  8004200f3a:	c9                   	leaveq 
  8004200f3b:	c3                   	retq   

0000008004200f3c <mon_kerninfo>:

int
mon_kerninfo(int argc, char **argv, struct Trapframe *tf)
{
  8004200f3c:	55                   	push   %rbp
  8004200f3d:	48 89 e5             	mov    %rsp,%rbp
  8004200f40:	48 83 ec 30          	sub    $0x30,%rsp
  8004200f44:	89 7d ec             	mov    %edi,-0x14(%rbp)
  8004200f47:	48 89 75 e0          	mov    %rsi,-0x20(%rbp)
  8004200f4b:	48 89 55 d8          	mov    %rdx,-0x28(%rbp)
	extern char _start[], entry[], etext[], edata[], end[];

	cprintf("Special kernel symbols:\n");
  8004200f4f:	48 bf 4e 94 20 04 80 	movabs $0x800420944e,%rdi
  8004200f56:	00 00 00 
  8004200f59:	b8 00 00 00 00       	mov    $0x0,%eax
  8004200f5e:	48 ba 09 14 20 04 80 	movabs $0x8004201409,%rdx
  8004200f65:	00 00 00 
  8004200f68:	ff d2                	callq  *%rdx
	cprintf("  _start                  %08x (phys)\n", _start);
  8004200f6a:	48 be 0c 00 20 00 00 	movabs $0x20000c,%rsi
  8004200f71:	00 00 00 
  8004200f74:	48 bf 68 94 20 04 80 	movabs $0x8004209468,%rdi
  8004200f7b:	00 00 00 
  8004200f7e:	b8 00 00 00 00       	mov    $0x0,%eax
  8004200f83:	48 ba 09 14 20 04 80 	movabs $0x8004201409,%rdx
  8004200f8a:	00 00 00 
  8004200f8d:	ff d2                	callq  *%rdx
	cprintf("  entry  %08x (virt)  %08x (phys)\n", entry, entry - KERNBASE);
  8004200f8f:	48 ba 0c 00 20 00 00 	movabs $0x20000c,%rdx
  8004200f96:	00 00 00 
  8004200f99:	48 be 0c 00 20 04 80 	movabs $0x800420000c,%rsi
  8004200fa0:	00 00 00 
  8004200fa3:	48 bf 90 94 20 04 80 	movabs $0x8004209490,%rdi
  8004200faa:	00 00 00 
  8004200fad:	b8 00 00 00 00       	mov    $0x0,%eax
  8004200fb2:	48 b9 09 14 20 04 80 	movabs $0x8004201409,%rcx
  8004200fb9:	00 00 00 
  8004200fbc:	ff d1                	callq  *%rcx
	cprintf("  etext  %08x (virt)  %08x (phys)\n", etext, etext - KERNBASE);
  8004200fbe:	48 ba 2f 93 20 00 00 	movabs $0x20932f,%rdx
  8004200fc5:	00 00 00 
  8004200fc8:	48 be 2f 93 20 04 80 	movabs $0x800420932f,%rsi
  8004200fcf:	00 00 00 
  8004200fd2:	48 bf b8 94 20 04 80 	movabs $0x80042094b8,%rdi
  8004200fd9:	00 00 00 
  8004200fdc:	b8 00 00 00 00       	mov    $0x0,%eax
  8004200fe1:	48 b9 09 14 20 04 80 	movabs $0x8004201409,%rcx
  8004200fe8:	00 00 00 
  8004200feb:	ff d1                	callq  *%rcx
	cprintf("  edata  %08x (virt)  %08x (phys)\n", edata, edata - KERNBASE);
  8004200fed:	48 ba a0 c6 21 00 00 	movabs $0x21c6a0,%rdx
  8004200ff4:	00 00 00 
  8004200ff7:	48 be a0 c6 21 04 80 	movabs $0x800421c6a0,%rsi
  8004200ffe:	00 00 00 
  8004201001:	48 bf e0 94 20 04 80 	movabs $0x80042094e0,%rdi
  8004201008:	00 00 00 
  800420100b:	b8 00 00 00 00       	mov    $0x0,%eax
  8004201010:	48 b9 09 14 20 04 80 	movabs $0x8004201409,%rcx
  8004201017:	00 00 00 
  800420101a:	ff d1                	callq  *%rcx
	cprintf("  end    %08x (virt)  %08x (phys)\n", end, end - KERNBASE);
  800420101c:	48 ba 40 dd 21 00 00 	movabs $0x21dd40,%rdx
  8004201023:	00 00 00 
  8004201026:	48 be 40 dd 21 04 80 	movabs $0x800421dd40,%rsi
  800420102d:	00 00 00 
  8004201030:	48 bf 08 95 20 04 80 	movabs $0x8004209508,%rdi
  8004201037:	00 00 00 
  800420103a:	b8 00 00 00 00       	mov    $0x0,%eax
  800420103f:	48 b9 09 14 20 04 80 	movabs $0x8004201409,%rcx
  8004201046:	00 00 00 
  8004201049:	ff d1                	callq  *%rcx
	cprintf("Kernel executable memory footprint: %dKB\n",
		ROUNDUP(end - entry, 1024) / 1024);
  800420104b:	48 c7 45 f8 00 04 00 	movq   $0x400,-0x8(%rbp)
  8004201052:	00 
  8004201053:	48 b8 0c 00 20 04 80 	movabs $0x800420000c,%rax
  800420105a:	00 00 00 
  800420105d:	48 8b 55 f8          	mov    -0x8(%rbp),%rdx
  8004201061:	48 29 c2             	sub    %rax,%rdx
  8004201064:	48 b8 40 dd 21 04 80 	movabs $0x800421dd40,%rax
  800420106b:	00 00 00 
  800420106e:	48 83 e8 01          	sub    $0x1,%rax
  8004201072:	48 01 d0             	add    %rdx,%rax
  8004201075:	48 89 45 f0          	mov    %rax,-0x10(%rbp)
  8004201079:	48 8b 45 f0          	mov    -0x10(%rbp),%rax
  800420107d:	ba 00 00 00 00       	mov    $0x0,%edx
  8004201082:	48 f7 75 f8          	divq   -0x8(%rbp)
  8004201086:	48 89 d0             	mov    %rdx,%rax
  8004201089:	48 8b 55 f0          	mov    -0x10(%rbp),%rdx
  800420108d:	48 29 c2             	sub    %rax,%rdx
  8004201090:	48 89 d0             	mov    %rdx,%rax
	cprintf("  _start                  %08x (phys)\n", _start);
	cprintf("  entry  %08x (virt)  %08x (phys)\n", entry, entry - KERNBASE);
	cprintf("  etext  %08x (virt)  %08x (phys)\n", etext, etext - KERNBASE);
	cprintf("  edata  %08x (virt)  %08x (phys)\n", edata, edata - KERNBASE);
	cprintf("  end    %08x (virt)  %08x (phys)\n", end, end - KERNBASE);
	cprintf("Kernel executable memory footprint: %dKB\n",
  8004201093:	48 8d 90 ff 03 00 00 	lea    0x3ff(%rax),%rdx
  800420109a:	48 85 c0             	test   %rax,%rax
  800420109d:	48 0f 48 c2          	cmovs  %rdx,%rax
  80042010a1:	48 c1 f8 0a          	sar    $0xa,%rax
  80042010a5:	48 89 c6             	mov    %rax,%rsi
  80042010a8:	48 bf 30 95 20 04 80 	movabs $0x8004209530,%rdi
  80042010af:	00 00 00 
  80042010b2:	b8 00 00 00 00       	mov    $0x0,%eax
  80042010b7:	48 ba 09 14 20 04 80 	movabs $0x8004201409,%rdx
  80042010be:	00 00 00 
  80042010c1:	ff d2                	callq  *%rdx
		ROUNDUP(end - entry, 1024) / 1024);
	return 0;
  80042010c3:	b8 00 00 00 00       	mov    $0x0,%eax
}
  80042010c8:	c9                   	leaveq 
  80042010c9:	c3                   	retq   

00000080042010ca <mon_backtrace>:

int
mon_backtrace(int argc, char **argv, struct Trapframe *tf)
{
  80042010ca:	55                   	push   %rbp
  80042010cb:	48 89 e5             	mov    %rsp,%rbp
  80042010ce:	48 83 ec 18          	sub    $0x18,%rsp
  80042010d2:	89 7d fc             	mov    %edi,-0x4(%rbp)
  80042010d5:	48 89 75 f0          	mov    %rsi,-0x10(%rbp)
  80042010d9:	48 89 55 e8          	mov    %rdx,-0x18(%rbp)
	// Your code here.
	return 0;
  80042010dd:	b8 00 00 00 00       	mov    $0x0,%eax
}
  80042010e2:	c9                   	leaveq 
  80042010e3:	c3                   	retq   

00000080042010e4 <runcmd>:
#define WHITESPACE "\t\r\n "
#define MAXARGS 16

static int
runcmd(char *buf, struct Trapframe *tf)
{
  80042010e4:	55                   	push   %rbp
  80042010e5:	48 89 e5             	mov    %rsp,%rbp
  80042010e8:	48 81 ec a0 00 00 00 	sub    $0xa0,%rsp
  80042010ef:	48 89 bd 68 ff ff ff 	mov    %rdi,-0x98(%rbp)
  80042010f6:	48 89 b5 60 ff ff ff 	mov    %rsi,-0xa0(%rbp)
	int argc;
	char *argv[MAXARGS];
	int i;

	// Parse the command buffer into whitespace-separated arguments
	argc = 0;
  80042010fd:	c7 45 fc 00 00 00 00 	movl   $0x0,-0x4(%rbp)
	argv[argc] = 0;
  8004201104:	8b 45 fc             	mov    -0x4(%rbp),%eax
  8004201107:	48 98                	cltq   
  8004201109:	48 c7 84 c5 70 ff ff 	movq   $0x0,-0x90(%rbp,%rax,8)
  8004201110:	ff 00 00 00 00 
	while (1) {
		// gobble whitespace
		while (*buf && strchr(WHITESPACE, *buf))
  8004201115:	eb 15                	jmp    800420112c <runcmd+0x48>
			*buf++ = 0;
  8004201117:	48 8b 85 68 ff ff ff 	mov    -0x98(%rbp),%rax
  800420111e:	48 8d 50 01          	lea    0x1(%rax),%rdx
  8004201122:	48 89 95 68 ff ff ff 	mov    %rdx,-0x98(%rbp)
  8004201129:	c6 00 00             	movb   $0x0,(%rax)
	// Parse the command buffer into whitespace-separated arguments
	argc = 0;
	argv[argc] = 0;
	while (1) {
		// gobble whitespace
		while (*buf && strchr(WHITESPACE, *buf))
  800420112c:	48 8b 85 68 ff ff ff 	mov    -0x98(%rbp),%rax
  8004201133:	0f b6 00             	movzbl (%rax),%eax
  8004201136:	84 c0                	test   %al,%al
  8004201138:	74 2a                	je     8004201164 <runcmd+0x80>
  800420113a:	48 8b 85 68 ff ff ff 	mov    -0x98(%rbp),%rax
  8004201141:	0f b6 00             	movzbl (%rax),%eax
  8004201144:	0f be c0             	movsbl %al,%eax
  8004201147:	89 c6                	mov    %eax,%esi
  8004201149:	48 bf 5a 95 20 04 80 	movabs $0x800420955a,%rdi
  8004201150:	00 00 00 
  8004201153:	48 b8 d3 2e 20 04 80 	movabs $0x8004202ed3,%rax
  800420115a:	00 00 00 
  800420115d:	ff d0                	callq  *%rax
  800420115f:	48 85 c0             	test   %rax,%rax
  8004201162:	75 b3                	jne    8004201117 <runcmd+0x33>
			*buf++ = 0;
		if (*buf == 0)
  8004201164:	48 8b 85 68 ff ff ff 	mov    -0x98(%rbp),%rax
  800420116b:	0f b6 00             	movzbl (%rax),%eax
  800420116e:	84 c0                	test   %al,%al
  8004201170:	75 21                	jne    8004201193 <runcmd+0xaf>
			break;
  8004201172:	90                   	nop
		}
		argv[argc++] = buf;
		while (*buf && !strchr(WHITESPACE, *buf))
			buf++;
	}
	argv[argc] = 0;
  8004201173:	8b 45 fc             	mov    -0x4(%rbp),%eax
  8004201176:	48 98                	cltq   
  8004201178:	48 c7 84 c5 70 ff ff 	movq   $0x0,-0x90(%rbp,%rax,8)
  800420117f:	ff 00 00 00 00 

	// Lookup and invoke the command
	if (argc == 0)
  8004201184:	83 7d fc 00          	cmpl   $0x0,-0x4(%rbp)
  8004201188:	0f 85 a1 00 00 00    	jne    800420122f <runcmd+0x14b>
  800420118e:	e9 92 00 00 00       	jmpq   8004201225 <runcmd+0x141>
			*buf++ = 0;
		if (*buf == 0)
			break;

		// save and scan past next arg
		if (argc == MAXARGS-1) {
  8004201193:	83 7d fc 0f          	cmpl   $0xf,-0x4(%rbp)
  8004201197:	75 2a                	jne    80042011c3 <runcmd+0xdf>
			cprintf("Too many arguments (max %d)\n", MAXARGS);
  8004201199:	be 10 00 00 00       	mov    $0x10,%esi
  800420119e:	48 bf 5f 95 20 04 80 	movabs $0x800420955f,%rdi
  80042011a5:	00 00 00 
  80042011a8:	b8 00 00 00 00       	mov    $0x0,%eax
  80042011ad:	48 ba 09 14 20 04 80 	movabs $0x8004201409,%rdx
  80042011b4:	00 00 00 
  80042011b7:	ff d2                	callq  *%rdx
			return 0;
  80042011b9:	b8 00 00 00 00       	mov    $0x0,%eax
  80042011be:	e9 30 01 00 00       	jmpq   80042012f3 <runcmd+0x20f>
		}
		argv[argc++] = buf;
  80042011c3:	8b 45 fc             	mov    -0x4(%rbp),%eax
  80042011c6:	8d 50 01             	lea    0x1(%rax),%edx
  80042011c9:	89 55 fc             	mov    %edx,-0x4(%rbp)
  80042011cc:	48 98                	cltq   
  80042011ce:	48 8b 95 68 ff ff ff 	mov    -0x98(%rbp),%rdx
  80042011d5:	48 89 94 c5 70 ff ff 	mov    %rdx,-0x90(%rbp,%rax,8)
  80042011dc:	ff 
		while (*buf && !strchr(WHITESPACE, *buf))
  80042011dd:	eb 08                	jmp    80042011e7 <runcmd+0x103>
			buf++;
  80042011df:	48 83 85 68 ff ff ff 	addq   $0x1,-0x98(%rbp)
  80042011e6:	01 
		if (argc == MAXARGS-1) {
			cprintf("Too many arguments (max %d)\n", MAXARGS);
			return 0;
		}
		argv[argc++] = buf;
		while (*buf && !strchr(WHITESPACE, *buf))
  80042011e7:	48 8b 85 68 ff ff ff 	mov    -0x98(%rbp),%rax
  80042011ee:	0f b6 00             	movzbl (%rax),%eax
  80042011f1:	84 c0                	test   %al,%al
  80042011f3:	74 2a                	je     800420121f <runcmd+0x13b>
  80042011f5:	48 8b 85 68 ff ff ff 	mov    -0x98(%rbp),%rax
  80042011fc:	0f b6 00             	movzbl (%rax),%eax
  80042011ff:	0f be c0             	movsbl %al,%eax
  8004201202:	89 c6                	mov    %eax,%esi
  8004201204:	48 bf 5a 95 20 04 80 	movabs $0x800420955a,%rdi
  800420120b:	00 00 00 
  800420120e:	48 b8 d3 2e 20 04 80 	movabs $0x8004202ed3,%rax
  8004201215:	00 00 00 
  8004201218:	ff d0                	callq  *%rax
  800420121a:	48 85 c0             	test   %rax,%rax
  800420121d:	74 c0                	je     80042011df <runcmd+0xfb>
			buf++;
	}
  800420121f:	90                   	nop
	// Parse the command buffer into whitespace-separated arguments
	argc = 0;
	argv[argc] = 0;
	while (1) {
		// gobble whitespace
		while (*buf && strchr(WHITESPACE, *buf))
  8004201220:	e9 07 ff ff ff       	jmpq   800420112c <runcmd+0x48>
	}
	argv[argc] = 0;

	// Lookup and invoke the command
	if (argc == 0)
		return 0;
  8004201225:	b8 00 00 00 00       	mov    $0x0,%eax
  800420122a:	e9 c4 00 00 00       	jmpq   80042012f3 <runcmd+0x20f>
	for (i = 0; i < NCOMMANDS; i++) {
  800420122f:	c7 45 f8 00 00 00 00 	movl   $0x0,-0x8(%rbp)
  8004201236:	e9 82 00 00 00       	jmpq   80042012bd <runcmd+0x1d9>
		if (strcmp(argv[0], commands[i].name) == 0)
  800420123b:	48 b9 80 c5 21 04 80 	movabs $0x800421c580,%rcx
  8004201242:	00 00 00 
  8004201245:	8b 45 f8             	mov    -0x8(%rbp),%eax
  8004201248:	48 63 d0             	movslq %eax,%rdx
  800420124b:	48 89 d0             	mov    %rdx,%rax
  800420124e:	48 01 c0             	add    %rax,%rax
  8004201251:	48 01 d0             	add    %rdx,%rax
  8004201254:	48 c1 e0 03          	shl    $0x3,%rax
  8004201258:	48 01 c8             	add    %rcx,%rax
  800420125b:	48 8b 10             	mov    (%rax),%rdx
  800420125e:	48 8b 85 70 ff ff ff 	mov    -0x90(%rbp),%rax
  8004201265:	48 89 d6             	mov    %rdx,%rsi
  8004201268:	48 89 c7             	mov    %rax,%rdi
  800420126b:	48 b8 0f 2e 20 04 80 	movabs $0x8004202e0f,%rax
  8004201272:	00 00 00 
  8004201275:	ff d0                	callq  *%rax
  8004201277:	85 c0                	test   %eax,%eax
  8004201279:	75 3e                	jne    80042012b9 <runcmd+0x1d5>
			return commands[i].func(argc, argv, tf);
  800420127b:	48 b9 80 c5 21 04 80 	movabs $0x800421c580,%rcx
  8004201282:	00 00 00 
  8004201285:	8b 45 f8             	mov    -0x8(%rbp),%eax
  8004201288:	48 63 d0             	movslq %eax,%rdx
  800420128b:	48 89 d0             	mov    %rdx,%rax
  800420128e:	48 01 c0             	add    %rax,%rax
  8004201291:	48 01 d0             	add    %rdx,%rax
  8004201294:	48 c1 e0 03          	shl    $0x3,%rax
  8004201298:	48 01 c8             	add    %rcx,%rax
  800420129b:	48 83 c0 10          	add    $0x10,%rax
  800420129f:	48 8b 00             	mov    (%rax),%rax
  80042012a2:	48 8b 95 60 ff ff ff 	mov    -0xa0(%rbp),%rdx
  80042012a9:	48 8d b5 70 ff ff ff 	lea    -0x90(%rbp),%rsi
  80042012b0:	8b 4d fc             	mov    -0x4(%rbp),%ecx
  80042012b3:	89 cf                	mov    %ecx,%edi
  80042012b5:	ff d0                	callq  *%rax
  80042012b7:	eb 3a                	jmp    80042012f3 <runcmd+0x20f>
	argv[argc] = 0;

	// Lookup and invoke the command
	if (argc == 0)
		return 0;
	for (i = 0; i < NCOMMANDS; i++) {
  80042012b9:	83 45 f8 01          	addl   $0x1,-0x8(%rbp)
  80042012bd:	8b 45 f8             	mov    -0x8(%rbp),%eax
  80042012c0:	83 f8 01             	cmp    $0x1,%eax
  80042012c3:	0f 86 72 ff ff ff    	jbe    800420123b <runcmd+0x157>
		if (strcmp(argv[0], commands[i].name) == 0)
			return commands[i].func(argc, argv, tf);
	}
	cprintf("Unknown command '%s'\n", argv[0]);
  80042012c9:	48 8b 85 70 ff ff ff 	mov    -0x90(%rbp),%rax
  80042012d0:	48 89 c6             	mov    %rax,%rsi
  80042012d3:	48 bf 7c 95 20 04 80 	movabs $0x800420957c,%rdi
  80042012da:	00 00 00 
  80042012dd:	b8 00 00 00 00       	mov    $0x0,%eax
  80042012e2:	48 ba 09 14 20 04 80 	movabs $0x8004201409,%rdx
  80042012e9:	00 00 00 
  80042012ec:	ff d2                	callq  *%rdx
	return 0;
  80042012ee:	b8 00 00 00 00       	mov    $0x0,%eax
}
  80042012f3:	c9                   	leaveq 
  80042012f4:	c3                   	retq   

00000080042012f5 <monitor>:

void
monitor(struct Trapframe *tf)
{
  80042012f5:	55                   	push   %rbp
  80042012f6:	48 89 e5             	mov    %rsp,%rbp
  80042012f9:	48 83 ec 20          	sub    $0x20,%rsp
  80042012fd:	48 89 7d e8          	mov    %rdi,-0x18(%rbp)
	char *buf;

	cprintf("Welcome to the JOS kernel monitor!\n");
  8004201301:	48 bf 98 95 20 04 80 	movabs $0x8004209598,%rdi
  8004201308:	00 00 00 
  800420130b:	b8 00 00 00 00       	mov    $0x0,%eax
  8004201310:	48 ba 09 14 20 04 80 	movabs $0x8004201409,%rdx
  8004201317:	00 00 00 
  800420131a:	ff d2                	callq  *%rdx
	cprintf("Type 'help' for a list of commands.\n");
  800420131c:	48 bf c0 95 20 04 80 	movabs $0x80042095c0,%rdi
  8004201323:	00 00 00 
  8004201326:	b8 00 00 00 00       	mov    $0x0,%eax
  800420132b:	48 ba 09 14 20 04 80 	movabs $0x8004201409,%rdx
  8004201332:	00 00 00 
  8004201335:	ff d2                	callq  *%rdx


	while (1) {
		buf = readline("K> ");
  8004201337:	48 bf e5 95 20 04 80 	movabs $0x80042095e5,%rdi
  800420133e:	00 00 00 
  8004201341:	48 b8 f2 2a 20 04 80 	movabs $0x8004202af2,%rax
  8004201348:	00 00 00 
  800420134b:	ff d0                	callq  *%rax
  800420134d:	48 89 45 f8          	mov    %rax,-0x8(%rbp)
		if (buf != NULL)
  8004201351:	48 83 7d f8 00       	cmpq   $0x0,-0x8(%rbp)
  8004201356:	74 20                	je     8004201378 <monitor+0x83>
			if (runcmd(buf, tf) < 0)
  8004201358:	48 8b 55 e8          	mov    -0x18(%rbp),%rdx
  800420135c:	48 8b 45 f8          	mov    -0x8(%rbp),%rax
  8004201360:	48 89 d6             	mov    %rdx,%rsi
  8004201363:	48 89 c7             	mov    %rax,%rdi
  8004201366:	48 b8 e4 10 20 04 80 	movabs $0x80042010e4,%rax
  800420136d:	00 00 00 
  8004201370:	ff d0                	callq  *%rax
  8004201372:	85 c0                	test   %eax,%eax
  8004201374:	79 02                	jns    8004201378 <monitor+0x83>
				break;
  8004201376:	eb 02                	jmp    800420137a <monitor+0x85>
	}
  8004201378:	eb bd                	jmp    8004201337 <monitor+0x42>
}
  800420137a:	c9                   	leaveq 
  800420137b:	c3                   	retq   

000000800420137c <putch>:
#include <inc/stdarg.h>


static void
putch(int ch, int *cnt)
{
  800420137c:	55                   	push   %rbp
  800420137d:	48 89 e5             	mov    %rsp,%rbp
  8004201380:	48 83 ec 10          	sub    $0x10,%rsp
  8004201384:	89 7d fc             	mov    %edi,-0x4(%rbp)
  8004201387:	48 89 75 f0          	mov    %rsi,-0x10(%rbp)
	cputchar(ch);
  800420138b:	8b 45 fc             	mov    -0x4(%rbp),%eax
  800420138e:	89 c7                	mov    %eax,%edi
  8004201390:	48 b8 53 0e 20 04 80 	movabs $0x8004200e53,%rax
  8004201397:	00 00 00 
  800420139a:	ff d0                	callq  *%rax
	*cnt++;
  800420139c:	48 8b 45 f0          	mov    -0x10(%rbp),%rax
  80042013a0:	48 83 c0 04          	add    $0x4,%rax
  80042013a4:	48 89 45 f0          	mov    %rax,-0x10(%rbp)
}
  80042013a8:	c9                   	leaveq 
  80042013a9:	c3                   	retq   

00000080042013aa <vcprintf>:

int
vcprintf(const char *fmt, va_list ap)
{
  80042013aa:	55                   	push   %rbp
  80042013ab:	48 89 e5             	mov    %rsp,%rbp
  80042013ae:	48 83 ec 30          	sub    $0x30,%rsp
  80042013b2:	48 89 7d d8          	mov    %rdi,-0x28(%rbp)
  80042013b6:	48 89 75 d0          	mov    %rsi,-0x30(%rbp)
	int cnt = 0;
  80042013ba:	c7 45 fc 00 00 00 00 	movl   $0x0,-0x4(%rbp)
	va_list aq;
	va_copy(aq,ap);
  80042013c1:	48 8d 45 e0          	lea    -0x20(%rbp),%rax
  80042013c5:	48 8b 55 d0          	mov    -0x30(%rbp),%rdx
  80042013c9:	48 8b 0a             	mov    (%rdx),%rcx
  80042013cc:	48 89 08             	mov    %rcx,(%rax)
  80042013cf:	48 8b 4a 08          	mov    0x8(%rdx),%rcx
  80042013d3:	48 89 48 08          	mov    %rcx,0x8(%rax)
  80042013d7:	48 8b 52 10          	mov    0x10(%rdx),%rdx
  80042013db:	48 89 50 10          	mov    %rdx,0x10(%rax)
	vprintfmt((void*)putch, &cnt, fmt, aq);
  80042013df:	48 8d 4d e0          	lea    -0x20(%rbp),%rcx
  80042013e3:	48 8b 55 d8          	mov    -0x28(%rbp),%rdx
  80042013e7:	48 8d 45 fc          	lea    -0x4(%rbp),%rax
  80042013eb:	48 89 c6             	mov    %rax,%rsi
  80042013ee:	48 bf 7c 13 20 04 80 	movabs $0x800420137c,%rdi
  80042013f5:	00 00 00 
  80042013f8:	48 b8 5c 23 20 04 80 	movabs $0x800420235c,%rax
  80042013ff:	00 00 00 
  8004201402:	ff d0                	callq  *%rax
	va_end(aq);
	return cnt;
  8004201404:	8b 45 fc             	mov    -0x4(%rbp),%eax

}
  8004201407:	c9                   	leaveq 
  8004201408:	c3                   	retq   

0000008004201409 <cprintf>:

int
cprintf(const char *fmt, ...)
{
  8004201409:	55                   	push   %rbp
  800420140a:	48 89 e5             	mov    %rsp,%rbp
  800420140d:	48 81 ec 00 01 00 00 	sub    $0x100,%rsp
  8004201414:	48 89 b5 58 ff ff ff 	mov    %rsi,-0xa8(%rbp)
  800420141b:	48 89 95 60 ff ff ff 	mov    %rdx,-0xa0(%rbp)
  8004201422:	48 89 8d 68 ff ff ff 	mov    %rcx,-0x98(%rbp)
  8004201429:	4c 89 85 70 ff ff ff 	mov    %r8,-0x90(%rbp)
  8004201430:	4c 89 8d 78 ff ff ff 	mov    %r9,-0x88(%rbp)
  8004201437:	84 c0                	test   %al,%al
  8004201439:	74 20                	je     800420145b <cprintf+0x52>
  800420143b:	0f 29 45 80          	movaps %xmm0,-0x80(%rbp)
  800420143f:	0f 29 4d 90          	movaps %xmm1,-0x70(%rbp)
  8004201443:	0f 29 55 a0          	movaps %xmm2,-0x60(%rbp)
  8004201447:	0f 29 5d b0          	movaps %xmm3,-0x50(%rbp)
  800420144b:	0f 29 65 c0          	movaps %xmm4,-0x40(%rbp)
  800420144f:	0f 29 6d d0          	movaps %xmm5,-0x30(%rbp)
  8004201453:	0f 29 75 e0          	movaps %xmm6,-0x20(%rbp)
  8004201457:	0f 29 7d f0          	movaps %xmm7,-0x10(%rbp)
  800420145b:	48 89 bd 08 ff ff ff 	mov    %rdi,-0xf8(%rbp)
	va_list ap;
	int cnt;
	va_start(ap, fmt);
  8004201462:	c7 85 30 ff ff ff 08 	movl   $0x8,-0xd0(%rbp)
  8004201469:	00 00 00 
  800420146c:	c7 85 34 ff ff ff 30 	movl   $0x30,-0xcc(%rbp)
  8004201473:	00 00 00 
  8004201476:	48 8d 45 10          	lea    0x10(%rbp),%rax
  800420147a:	48 89 85 38 ff ff ff 	mov    %rax,-0xc8(%rbp)
  8004201481:	48 8d 85 50 ff ff ff 	lea    -0xb0(%rbp),%rax
  8004201488:	48 89 85 40 ff ff ff 	mov    %rax,-0xc0(%rbp)
	va_list aq;
	va_copy(aq,ap);
  800420148f:	48 8d 85 18 ff ff ff 	lea    -0xe8(%rbp),%rax
  8004201496:	48 8d 95 30 ff ff ff 	lea    -0xd0(%rbp),%rdx
  800420149d:	48 8b 0a             	mov    (%rdx),%rcx
  80042014a0:	48 89 08             	mov    %rcx,(%rax)
  80042014a3:	48 8b 4a 08          	mov    0x8(%rdx),%rcx
  80042014a7:	48 89 48 08          	mov    %rcx,0x8(%rax)
  80042014ab:	48 8b 52 10          	mov    0x10(%rdx),%rdx
  80042014af:	48 89 50 10          	mov    %rdx,0x10(%rax)
	cnt = vcprintf(fmt, aq);
  80042014b3:	48 8d 95 18 ff ff ff 	lea    -0xe8(%rbp),%rdx
  80042014ba:	48 8b 85 08 ff ff ff 	mov    -0xf8(%rbp),%rax
  80042014c1:	48 89 d6             	mov    %rdx,%rsi
  80042014c4:	48 89 c7             	mov    %rax,%rdi
  80042014c7:	48 b8 aa 13 20 04 80 	movabs $0x80042013aa,%rax
  80042014ce:	00 00 00 
  80042014d1:	ff d0                	callq  *%rax
  80042014d3:	89 85 4c ff ff ff    	mov    %eax,-0xb4(%rbp)
	va_end(aq);

	return cnt;
  80042014d9:	8b 85 4c ff ff ff    	mov    -0xb4(%rbp),%eax
}
  80042014df:	c9                   	leaveq 
  80042014e0:	c3                   	retq   

00000080042014e1 <syscall>:


// Dispatches to the correct kernel function, passing the arguments.
int64_t
syscall(uint64_t syscallno, uint64_t a1, uint64_t a2, uint64_t a3, uint64_t a4, uint64_t a5)
{
  80042014e1:	55                   	push   %rbp
  80042014e2:	48 89 e5             	mov    %rsp,%rbp
  80042014e5:	48 83 ec 30          	sub    $0x30,%rsp
  80042014e9:	48 89 7d f8          	mov    %rdi,-0x8(%rbp)
  80042014ed:	48 89 75 f0          	mov    %rsi,-0x10(%rbp)
  80042014f1:	48 89 55 e8          	mov    %rdx,-0x18(%rbp)
  80042014f5:	48 89 4d e0          	mov    %rcx,-0x20(%rbp)
  80042014f9:	4c 89 45 d8          	mov    %r8,-0x28(%rbp)
  80042014fd:	4c 89 4d d0          	mov    %r9,-0x30(%rbp)
	// Call the function corresponding to the 'syscallno' parameter.
	// Return any appropriate return value.
	// LAB 3: Your code here.

	panic("syscall not implemented");
  8004201501:	48 ba e9 95 20 04 80 	movabs $0x80042095e9,%rdx
  8004201508:	00 00 00 
  800420150b:	be 0e 00 00 00       	mov    $0xe,%esi
  8004201510:	48 bf 01 96 20 04 80 	movabs $0x8004209601,%rdi
  8004201517:	00 00 00 
  800420151a:	b8 00 00 00 00       	mov    $0x0,%eax
  800420151f:	48 b9 98 01 20 04 80 	movabs $0x8004200198,%rcx
  8004201526:	00 00 00 
  8004201529:	ff d1                	callq  *%rcx

000000800420152b <list_func_die>:

#endif


int list_func_die(struct Ripdebuginfo *info, Dwarf_Die *die, uint64_t addr)
{
  800420152b:	55                   	push   %rbp
  800420152c:	48 89 e5             	mov    %rsp,%rbp
  800420152f:	48 81 ec f0 61 00 00 	sub    $0x61f0,%rsp
  8004201536:	48 89 bd 58 9e ff ff 	mov    %rdi,-0x61a8(%rbp)
  800420153d:	48 89 b5 50 9e ff ff 	mov    %rsi,-0x61b0(%rbp)
  8004201544:	48 89 95 48 9e ff ff 	mov    %rdx,-0x61b8(%rbp)
	_Dwarf_Line ln;
	Dwarf_Attribute *low;
	Dwarf_Attribute *high;
	Dwarf_CU *cu = die->cu_header;
  800420154b:	48 8b 85 50 9e ff ff 	mov    -0x61b0(%rbp),%rax
  8004201552:	48 8b 80 60 03 00 00 	mov    0x360(%rax),%rax
  8004201559:	48 89 45 e0          	mov    %rax,-0x20(%rbp)
	Dwarf_Die *cudie = die->cu_die; 
  800420155d:	48 8b 85 50 9e ff ff 	mov    -0x61b0(%rbp),%rax
  8004201564:	48 8b 80 68 03 00 00 	mov    0x368(%rax),%rax
  800420156b:	48 89 45 d8          	mov    %rax,-0x28(%rbp)
	Dwarf_Die ret, sib=*die; 
  800420156f:	48 8b 95 50 9e ff ff 	mov    -0x61b0(%rbp),%rdx
  8004201576:	48 8d 85 70 9e ff ff 	lea    -0x6190(%rbp),%rax
  800420157d:	48 89 d1             	mov    %rdx,%rcx
  8004201580:	ba 70 30 00 00       	mov    $0x3070,%edx
  8004201585:	48 89 ce             	mov    %rcx,%rsi
  8004201588:	48 89 c7             	mov    %rax,%rdi
  800420158b:	48 b8 e8 30 20 04 80 	movabs $0x80042030e8,%rax
  8004201592:	00 00 00 
  8004201595:	ff d0                	callq  *%rax
	Dwarf_Attribute *attr;
	uint64_t offset;
	uint64_t ret_val=8;
  8004201597:	48 c7 45 f8 08 00 00 	movq   $0x8,-0x8(%rbp)
  800420159e:	00 
	uint64_t ret_offset=0;
  800420159f:	48 c7 45 f0 00 00 00 	movq   $0x0,-0x10(%rbp)
  80042015a6:	00 

	if(die->die_tag != DW_TAG_subprogram)
  80042015a7:	48 8b 85 50 9e ff ff 	mov    -0x61b0(%rbp),%rax
  80042015ae:	48 8b 40 18          	mov    0x18(%rax),%rax
  80042015b2:	48 83 f8 2e          	cmp    $0x2e,%rax
  80042015b6:	74 0a                	je     80042015c2 <list_func_die+0x97>
		return 0;
  80042015b8:	b8 00 00 00 00       	mov    $0x0,%eax
  80042015bd:	e9 cd 06 00 00       	jmpq   8004201c8f <list_func_die+0x764>

	memset(&ln, 0, sizeof(_Dwarf_Line));
  80042015c2:	48 8d 85 50 ff ff ff 	lea    -0xb0(%rbp),%rax
  80042015c9:	ba 38 00 00 00       	mov    $0x38,%edx
  80042015ce:	be 00 00 00 00       	mov    $0x0,%esi
  80042015d3:	48 89 c7             	mov    %rax,%rdi
  80042015d6:	48 b8 46 2f 20 04 80 	movabs $0x8004202f46,%rax
  80042015dd:	00 00 00 
  80042015e0:	ff d0                	callq  *%rax

	low  = _dwarf_attr_find(die, DW_AT_low_pc);
  80042015e2:	48 8b 85 50 9e ff ff 	mov    -0x61b0(%rbp),%rax
  80042015e9:	be 11 00 00 00       	mov    $0x11,%esi
  80042015ee:	48 89 c7             	mov    %rax,%rdi
  80042015f1:	48 b8 7b 4e 20 04 80 	movabs $0x8004204e7b,%rax
  80042015f8:	00 00 00 
  80042015fb:	ff d0                	callq  *%rax
  80042015fd:	48 89 45 d0          	mov    %rax,-0x30(%rbp)
	high = _dwarf_attr_find(die, DW_AT_high_pc);
  8004201601:	48 8b 85 50 9e ff ff 	mov    -0x61b0(%rbp),%rax
  8004201608:	be 12 00 00 00       	mov    $0x12,%esi
  800420160d:	48 89 c7             	mov    %rax,%rdi
  8004201610:	48 b8 7b 4e 20 04 80 	movabs $0x8004204e7b,%rax
  8004201617:	00 00 00 
  800420161a:	ff d0                	callq  *%rax
  800420161c:	48 89 45 c8          	mov    %rax,-0x38(%rbp)

	if((low && (low->u[0].u64 < addr)) && (high && (high->u[0].u64 > addr)))
  8004201620:	48 83 7d d0 00       	cmpq   $0x0,-0x30(%rbp)
  8004201625:	0f 84 5f 06 00 00    	je     8004201c8a <list_func_die+0x75f>
  800420162b:	48 8b 45 d0          	mov    -0x30(%rbp),%rax
  800420162f:	48 8b 40 28          	mov    0x28(%rax),%rax
  8004201633:	48 3b 85 48 9e ff ff 	cmp    -0x61b8(%rbp),%rax
  800420163a:	0f 83 4a 06 00 00    	jae    8004201c8a <list_func_die+0x75f>
  8004201640:	48 83 7d c8 00       	cmpq   $0x0,-0x38(%rbp)
  8004201645:	0f 84 3f 06 00 00    	je     8004201c8a <list_func_die+0x75f>
  800420164b:	48 8b 45 c8          	mov    -0x38(%rbp),%rax
  800420164f:	48 8b 40 28          	mov    0x28(%rax),%rax
  8004201653:	48 3b 85 48 9e ff ff 	cmp    -0x61b8(%rbp),%rax
  800420165a:	0f 86 2a 06 00 00    	jbe    8004201c8a <list_func_die+0x75f>
	{
		info->rip_file = die->cu_die->die_name;
  8004201660:	48 8b 85 50 9e ff ff 	mov    -0x61b0(%rbp),%rax
  8004201667:	48 8b 80 68 03 00 00 	mov    0x368(%rax),%rax
  800420166e:	48 8b 90 50 03 00 00 	mov    0x350(%rax),%rdx
  8004201675:	48 8b 85 58 9e ff ff 	mov    -0x61a8(%rbp),%rax
  800420167c:	48 89 10             	mov    %rdx,(%rax)

		info->rip_fn_name = die->die_name;
  800420167f:	48 8b 85 50 9e ff ff 	mov    -0x61b0(%rbp),%rax
  8004201686:	48 8b 90 50 03 00 00 	mov    0x350(%rax),%rdx
  800420168d:	48 8b 85 58 9e ff ff 	mov    -0x61a8(%rbp),%rax
  8004201694:	48 89 50 10          	mov    %rdx,0x10(%rax)
		info->rip_fn_namelen = strlen(die->die_name);
  8004201698:	48 8b 85 50 9e ff ff 	mov    -0x61b0(%rbp),%rax
  800420169f:	48 8b 80 50 03 00 00 	mov    0x350(%rax),%rax
  80042016a6:	48 89 c7             	mov    %rax,%rdi
  80042016a9:	48 b8 41 2c 20 04 80 	movabs $0x8004202c41,%rax
  80042016b0:	00 00 00 
  80042016b3:	ff d0                	callq  *%rax
  80042016b5:	48 8b 95 58 9e ff ff 	mov    -0x61a8(%rbp),%rdx
  80042016bc:	89 42 18             	mov    %eax,0x18(%rdx)

		info->rip_fn_addr = (uintptr_t)low->u[0].u64;
  80042016bf:	48 8b 45 d0          	mov    -0x30(%rbp),%rax
  80042016c3:	48 8b 50 28          	mov    0x28(%rax),%rdx
  80042016c7:	48 8b 85 58 9e ff ff 	mov    -0x61a8(%rbp),%rax
  80042016ce:	48 89 50 20          	mov    %rdx,0x20(%rax)

		assert(die->cu_die);	
  80042016d2:	48 8b 85 50 9e ff ff 	mov    -0x61b0(%rbp),%rax
  80042016d9:	48 8b 80 68 03 00 00 	mov    0x368(%rax),%rax
  80042016e0:	48 85 c0             	test   %rax,%rax
  80042016e3:	75 35                	jne    800420171a <list_func_die+0x1ef>
  80042016e5:	48 b9 40 99 20 04 80 	movabs $0x8004209940,%rcx
  80042016ec:	00 00 00 
  80042016ef:	48 ba 4c 99 20 04 80 	movabs $0x800420994c,%rdx
  80042016f6:	00 00 00 
  80042016f9:	be 88 00 00 00       	mov    $0x88,%esi
  80042016fe:	48 bf 61 99 20 04 80 	movabs $0x8004209961,%rdi
  8004201705:	00 00 00 
  8004201708:	b8 00 00 00 00       	mov    $0x0,%eax
  800420170d:	49 b8 98 01 20 04 80 	movabs $0x8004200198,%r8
  8004201714:	00 00 00 
  8004201717:	41 ff d0             	callq  *%r8
		dwarf_srclines(die->cu_die, &ln, addr, NULL); 
  800420171a:	48 8b 85 50 9e ff ff 	mov    -0x61b0(%rbp),%rax
  8004201721:	48 8b 80 68 03 00 00 	mov    0x368(%rax),%rax
  8004201728:	48 8b 95 48 9e ff ff 	mov    -0x61b8(%rbp),%rdx
  800420172f:	48 8d b5 50 ff ff ff 	lea    -0xb0(%rbp),%rsi
  8004201736:	b9 00 00 00 00       	mov    $0x0,%ecx
  800420173b:	48 89 c7             	mov    %rax,%rdi
  800420173e:	48 b8 a2 84 20 04 80 	movabs $0x80042084a2,%rax
  8004201745:	00 00 00 
  8004201748:	ff d0                	callq  *%rax

		info->rip_line = ln.ln_lineno;
  800420174a:	48 8b 85 68 ff ff ff 	mov    -0x98(%rbp),%rax
  8004201751:	89 c2                	mov    %eax,%edx
  8004201753:	48 8b 85 58 9e ff ff 	mov    -0x61a8(%rbp),%rax
  800420175a:	89 50 08             	mov    %edx,0x8(%rax)
		info->rip_fn_narg = 0;
  800420175d:	48 8b 85 58 9e ff ff 	mov    -0x61a8(%rbp),%rax
  8004201764:	c7 40 28 00 00 00 00 	movl   $0x0,0x28(%rax)

		Dwarf_Attribute* attr;

		if(dwarf_child(dbg, cu, &sib, &ret) != DW_DLE_NO_ENTRY)
  800420176b:	48 b8 c0 c5 21 04 80 	movabs $0x800421c5c0,%rax
  8004201772:	00 00 00 
  8004201775:	48 8b 00             	mov    (%rax),%rax
  8004201778:	48 8d 8d e0 ce ff ff 	lea    -0x3120(%rbp),%rcx
  800420177f:	48 8d 95 70 9e ff ff 	lea    -0x6190(%rbp),%rdx
  8004201786:	48 8b 75 e0          	mov    -0x20(%rbp),%rsi
  800420178a:	48 89 c7             	mov    %rax,%rdi
  800420178d:	48 b8 52 51 20 04 80 	movabs $0x8004205152,%rax
  8004201794:	00 00 00 
  8004201797:	ff d0                	callq  *%rax
  8004201799:	83 f8 04             	cmp    $0x4,%eax
  800420179c:	0f 84 e1 04 00 00    	je     8004201c83 <list_func_die+0x758>
		{
			if(ret.die_tag != DW_TAG_formal_parameter)
  80042017a2:	48 8b 85 f8 ce ff ff 	mov    -0x3108(%rbp),%rax
  80042017a9:	48 83 f8 05          	cmp    $0x5,%rax
  80042017ad:	74 05                	je     80042017b4 <list_func_die+0x289>
				goto last;
  80042017af:	e9 cf 04 00 00       	jmpq   8004201c83 <list_func_die+0x758>

			attr = _dwarf_attr_find(&ret, DW_AT_type);
  80042017b4:	48 8d 85 e0 ce ff ff 	lea    -0x3120(%rbp),%rax
  80042017bb:	be 49 00 00 00       	mov    $0x49,%esi
  80042017c0:	48 89 c7             	mov    %rax,%rdi
  80042017c3:	48 b8 7b 4e 20 04 80 	movabs $0x8004204e7b,%rax
  80042017ca:	00 00 00 
  80042017cd:	ff d0                	callq  *%rax
  80042017cf:	48 89 45 e8          	mov    %rax,-0x18(%rbp)
	
		try_again:
			if(attr != NULL)
  80042017d3:	48 83 7d e8 00       	cmpq   $0x0,-0x18(%rbp)
  80042017d8:	0f 84 d7 00 00 00    	je     80042018b5 <list_func_die+0x38a>
			{
				offset = (uint64_t)cu->cu_offset + attr->u[0].u64;
  80042017de:	48 8b 45 e0          	mov    -0x20(%rbp),%rax
  80042017e2:	48 8b 50 30          	mov    0x30(%rax),%rdx
  80042017e6:	48 8b 45 e8          	mov    -0x18(%rbp),%rax
  80042017ea:	48 8b 40 28          	mov    0x28(%rax),%rax
  80042017ee:	48 01 d0             	add    %rdx,%rax
  80042017f1:	48 89 45 c0          	mov    %rax,-0x40(%rbp)
				dwarf_offdie(dbg, offset, &sib, *cu);
  80042017f5:	48 b8 c0 c5 21 04 80 	movabs $0x800421c5c0,%rax
  80042017fc:	00 00 00 
  80042017ff:	48 8b 08             	mov    (%rax),%rcx
  8004201802:	48 8d 95 70 9e ff ff 	lea    -0x6190(%rbp),%rdx
  8004201809:	48 8b 75 c0          	mov    -0x40(%rbp),%rsi
  800420180d:	48 8b 45 e0          	mov    -0x20(%rbp),%rax
  8004201811:	48 8b 38             	mov    (%rax),%rdi
  8004201814:	48 89 3c 24          	mov    %rdi,(%rsp)
  8004201818:	48 8b 78 08          	mov    0x8(%rax),%rdi
  800420181c:	48 89 7c 24 08       	mov    %rdi,0x8(%rsp)
  8004201821:	48 8b 78 10          	mov    0x10(%rax),%rdi
  8004201825:	48 89 7c 24 10       	mov    %rdi,0x10(%rsp)
  800420182a:	48 8b 78 18          	mov    0x18(%rax),%rdi
  800420182e:	48 89 7c 24 18       	mov    %rdi,0x18(%rsp)
  8004201833:	48 8b 78 20          	mov    0x20(%rax),%rdi
  8004201837:	48 89 7c 24 20       	mov    %rdi,0x20(%rsp)
  800420183c:	48 8b 78 28          	mov    0x28(%rax),%rdi
  8004201840:	48 89 7c 24 28       	mov    %rdi,0x28(%rsp)
  8004201845:	48 8b 40 30          	mov    0x30(%rax),%rax
  8004201849:	48 89 44 24 30       	mov    %rax,0x30(%rsp)
  800420184e:	48 89 cf             	mov    %rcx,%rdi
  8004201851:	48 b8 78 4d 20 04 80 	movabs $0x8004204d78,%rax
  8004201858:	00 00 00 
  800420185b:	ff d0                	callq  *%rax
				attr = _dwarf_attr_find(&sib, DW_AT_byte_size);
  800420185d:	48 8d 85 70 9e ff ff 	lea    -0x6190(%rbp),%rax
  8004201864:	be 0b 00 00 00       	mov    $0xb,%esi
  8004201869:	48 89 c7             	mov    %rax,%rdi
  800420186c:	48 b8 7b 4e 20 04 80 	movabs $0x8004204e7b,%rax
  8004201873:	00 00 00 
  8004201876:	ff d0                	callq  *%rax
  8004201878:	48 89 45 e8          	mov    %rax,-0x18(%rbp)
		
				if(attr != NULL)
  800420187c:	48 83 7d e8 00       	cmpq   $0x0,-0x18(%rbp)
  8004201881:	74 0e                	je     8004201891 <list_func_die+0x366>
				{
					ret_val = attr->u[0].u64;
  8004201883:	48 8b 45 e8          	mov    -0x18(%rbp),%rax
  8004201887:	48 8b 40 28          	mov    0x28(%rax),%rax
  800420188b:	48 89 45 f8          	mov    %rax,-0x8(%rbp)
  800420188f:	eb 24                	jmp    80042018b5 <list_func_die+0x38a>
				}
				else
				{
					attr = _dwarf_attr_find(&sib, DW_AT_type);
  8004201891:	48 8d 85 70 9e ff ff 	lea    -0x6190(%rbp),%rax
  8004201898:	be 49 00 00 00       	mov    $0x49,%esi
  800420189d:	48 89 c7             	mov    %rax,%rdi
  80042018a0:	48 b8 7b 4e 20 04 80 	movabs $0x8004204e7b,%rax
  80042018a7:	00 00 00 
  80042018aa:	ff d0                	callq  *%rax
  80042018ac:	48 89 45 e8          	mov    %rax,-0x18(%rbp)
					goto try_again;
  80042018b0:	e9 1e ff ff ff       	jmpq   80042017d3 <list_func_die+0x2a8>
				}
			}

			ret_offset = 0;
  80042018b5:	48 c7 45 f0 00 00 00 	movq   $0x0,-0x10(%rbp)
  80042018bc:	00 
			attr = _dwarf_attr_find(&ret, DW_AT_location);
  80042018bd:	48 8d 85 e0 ce ff ff 	lea    -0x3120(%rbp),%rax
  80042018c4:	be 02 00 00 00       	mov    $0x2,%esi
  80042018c9:	48 89 c7             	mov    %rax,%rdi
  80042018cc:	48 b8 7b 4e 20 04 80 	movabs $0x8004204e7b,%rax
  80042018d3:	00 00 00 
  80042018d6:	ff d0                	callq  *%rax
  80042018d8:	48 89 45 e8          	mov    %rax,-0x18(%rbp)
			if (attr != NULL)
  80042018dc:	48 83 7d e8 00       	cmpq   $0x0,-0x18(%rbp)
  80042018e1:	0f 84 a2 00 00 00    	je     8004201989 <list_func_die+0x45e>
			{
				Dwarf_Unsigned loc_len = attr->at_block.bl_len;
  80042018e7:	48 8b 45 e8          	mov    -0x18(%rbp),%rax
  80042018eb:	48 8b 40 38          	mov    0x38(%rax),%rax
  80042018ef:	48 89 45 b8          	mov    %rax,-0x48(%rbp)
				Dwarf_Small *loc_ptr = attr->at_block.bl_data;
  80042018f3:	48 8b 45 e8          	mov    -0x18(%rbp),%rax
  80042018f7:	48 8b 40 40          	mov    0x40(%rax),%rax
  80042018fb:	48 89 45 b0          	mov    %rax,-0x50(%rbp)
				Dwarf_Small atom;
				Dwarf_Unsigned op1, op2;

				switch(attr->at_form) {
  80042018ff:	48 8b 45 e8          	mov    -0x18(%rbp),%rax
  8004201903:	48 8b 40 18          	mov    0x18(%rax),%rax
  8004201907:	48 83 f8 03          	cmp    $0x3,%rax
  800420190b:	72 7c                	jb     8004201989 <list_func_die+0x45e>
  800420190d:	48 83 f8 04          	cmp    $0x4,%rax
  8004201911:	76 06                	jbe    8004201919 <list_func_die+0x3ee>
  8004201913:	48 83 f8 0a          	cmp    $0xa,%rax
  8004201917:	75 70                	jne    8004201989 <list_func_die+0x45e>
					case DW_FORM_block1:
					case DW_FORM_block2:
					case DW_FORM_block4:
						offset = 0;
  8004201919:	48 c7 45 c0 00 00 00 	movq   $0x0,-0x40(%rbp)
  8004201920:	00 
						atom = *(loc_ptr++);
  8004201921:	48 8b 45 b0          	mov    -0x50(%rbp),%rax
  8004201925:	48 8d 50 01          	lea    0x1(%rax),%rdx
  8004201929:	48 89 55 b0          	mov    %rdx,-0x50(%rbp)
  800420192d:	0f b6 00             	movzbl (%rax),%eax
  8004201930:	88 45 af             	mov    %al,-0x51(%rbp)
						offset++;
  8004201933:	48 83 45 c0 01       	addq   $0x1,-0x40(%rbp)
						if (atom == DW_OP_fbreg) {
  8004201938:	80 7d af 91          	cmpb   $0x91,-0x51(%rbp)
  800420193c:	75 4a                	jne    8004201988 <list_func_die+0x45d>
							uint8_t *p = loc_ptr;
  800420193e:	48 8b 45 b0          	mov    -0x50(%rbp),%rax
  8004201942:	48 89 85 68 9e ff ff 	mov    %rax,-0x6198(%rbp)
							ret_offset = _dwarf_decode_sleb128(&p);
  8004201949:	48 8d 85 68 9e ff ff 	lea    -0x6198(%rbp),%rax
  8004201950:	48 89 c7             	mov    %rax,%rdi
  8004201953:	48 b8 d7 3a 20 04 80 	movabs $0x8004203ad7,%rax
  800420195a:	00 00 00 
  800420195d:	ff d0                	callq  *%rax
  800420195f:	48 89 45 f0          	mov    %rax,-0x10(%rbp)
							offset += p - loc_ptr;
  8004201963:	48 8b 85 68 9e ff ff 	mov    -0x6198(%rbp),%rax
  800420196a:	48 89 c2             	mov    %rax,%rdx
  800420196d:	48 8b 45 b0          	mov    -0x50(%rbp),%rax
  8004201971:	48 29 c2             	sub    %rax,%rdx
  8004201974:	48 89 d0             	mov    %rdx,%rax
  8004201977:	48 01 45 c0          	add    %rax,-0x40(%rbp)
							loc_ptr = p;
  800420197b:	48 8b 85 68 9e ff ff 	mov    -0x6198(%rbp),%rax
  8004201982:	48 89 45 b0          	mov    %rax,-0x50(%rbp)
						}
						break;
  8004201986:	eb 00                	jmp    8004201988 <list_func_die+0x45d>
  8004201988:	90                   	nop
				}
			}

			info->size_fn_arg[info->rip_fn_narg] = ret_val;
  8004201989:	48 8b 85 58 9e ff ff 	mov    -0x61a8(%rbp),%rax
  8004201990:	8b 48 28             	mov    0x28(%rax),%ecx
  8004201993:	48 8b 45 f8          	mov    -0x8(%rbp),%rax
  8004201997:	89 c2                	mov    %eax,%edx
  8004201999:	48 8b 85 58 9e ff ff 	mov    -0x61a8(%rbp),%rax
  80042019a0:	48 63 c9             	movslq %ecx,%rcx
  80042019a3:	48 83 c1 08          	add    $0x8,%rcx
  80042019a7:	89 54 88 0c          	mov    %edx,0xc(%rax,%rcx,4)
			info->offset_fn_arg[info->rip_fn_narg] = ret_offset;
  80042019ab:	48 8b 85 58 9e ff ff 	mov    -0x61a8(%rbp),%rax
  80042019b2:	8b 50 28             	mov    0x28(%rax),%edx
  80042019b5:	48 8b 85 58 9e ff ff 	mov    -0x61a8(%rbp),%rax
  80042019bc:	48 63 d2             	movslq %edx,%rdx
  80042019bf:	48 8d 4a 0a          	lea    0xa(%rdx),%rcx
  80042019c3:	48 8b 55 f0          	mov    -0x10(%rbp),%rdx
  80042019c7:	48 89 54 c8 08       	mov    %rdx,0x8(%rax,%rcx,8)
			info->rip_fn_narg++;
  80042019cc:	48 8b 85 58 9e ff ff 	mov    -0x61a8(%rbp),%rax
  80042019d3:	8b 40 28             	mov    0x28(%rax),%eax
  80042019d6:	8d 50 01             	lea    0x1(%rax),%edx
  80042019d9:	48 8b 85 58 9e ff ff 	mov    -0x61a8(%rbp),%rax
  80042019e0:	89 50 28             	mov    %edx,0x28(%rax)
			sib = ret; 
  80042019e3:	48 8d 85 70 9e ff ff 	lea    -0x6190(%rbp),%rax
  80042019ea:	48 8d 8d e0 ce ff ff 	lea    -0x3120(%rbp),%rcx
  80042019f1:	ba 70 30 00 00       	mov    $0x3070,%edx
  80042019f6:	48 89 ce             	mov    %rcx,%rsi
  80042019f9:	48 89 c7             	mov    %rax,%rdi
  80042019fc:	48 b8 e8 30 20 04 80 	movabs $0x80042030e8,%rax
  8004201a03:	00 00 00 
  8004201a06:	ff d0                	callq  *%rax

			while(dwarf_siblingof(dbg, &sib, &ret, cu) == DW_DLV_OK)	
  8004201a08:	e9 40 02 00 00       	jmpq   8004201c4d <list_func_die+0x722>
			{
				if(ret.die_tag != DW_TAG_formal_parameter)
  8004201a0d:	48 8b 85 f8 ce ff ff 	mov    -0x3108(%rbp),%rax
  8004201a14:	48 83 f8 05          	cmp    $0x5,%rax
  8004201a18:	74 05                	je     8004201a1f <list_func_die+0x4f4>
					break;
  8004201a1a:	e9 64 02 00 00       	jmpq   8004201c83 <list_func_die+0x758>

				attr = _dwarf_attr_find(&ret, DW_AT_type);
  8004201a1f:	48 8d 85 e0 ce ff ff 	lea    -0x3120(%rbp),%rax
  8004201a26:	be 49 00 00 00       	mov    $0x49,%esi
  8004201a2b:	48 89 c7             	mov    %rax,%rdi
  8004201a2e:	48 b8 7b 4e 20 04 80 	movabs $0x8004204e7b,%rax
  8004201a35:	00 00 00 
  8004201a38:	ff d0                	callq  *%rax
  8004201a3a:	48 89 45 e8          	mov    %rax,-0x18(%rbp)
    
				if(attr != NULL)
  8004201a3e:	48 83 7d e8 00       	cmpq   $0x0,-0x18(%rbp)
  8004201a43:	0f 84 b1 00 00 00    	je     8004201afa <list_func_die+0x5cf>
				{	   
					offset = (uint64_t)cu->cu_offset + attr->u[0].u64;
  8004201a49:	48 8b 45 e0          	mov    -0x20(%rbp),%rax
  8004201a4d:	48 8b 50 30          	mov    0x30(%rax),%rdx
  8004201a51:	48 8b 45 e8          	mov    -0x18(%rbp),%rax
  8004201a55:	48 8b 40 28          	mov    0x28(%rax),%rax
  8004201a59:	48 01 d0             	add    %rdx,%rax
  8004201a5c:	48 89 45 c0          	mov    %rax,-0x40(%rbp)
					dwarf_offdie(dbg, offset, &sib, *cu);
  8004201a60:	48 b8 c0 c5 21 04 80 	movabs $0x800421c5c0,%rax
  8004201a67:	00 00 00 
  8004201a6a:	48 8b 08             	mov    (%rax),%rcx
  8004201a6d:	48 8d 95 70 9e ff ff 	lea    -0x6190(%rbp),%rdx
  8004201a74:	48 8b 75 c0          	mov    -0x40(%rbp),%rsi
  8004201a78:	48 8b 45 e0          	mov    -0x20(%rbp),%rax
  8004201a7c:	48 8b 38             	mov    (%rax),%rdi
  8004201a7f:	48 89 3c 24          	mov    %rdi,(%rsp)
  8004201a83:	48 8b 78 08          	mov    0x8(%rax),%rdi
  8004201a87:	48 89 7c 24 08       	mov    %rdi,0x8(%rsp)
  8004201a8c:	48 8b 78 10          	mov    0x10(%rax),%rdi
  8004201a90:	48 89 7c 24 10       	mov    %rdi,0x10(%rsp)
  8004201a95:	48 8b 78 18          	mov    0x18(%rax),%rdi
  8004201a99:	48 89 7c 24 18       	mov    %rdi,0x18(%rsp)
  8004201a9e:	48 8b 78 20          	mov    0x20(%rax),%rdi
  8004201aa2:	48 89 7c 24 20       	mov    %rdi,0x20(%rsp)
  8004201aa7:	48 8b 78 28          	mov    0x28(%rax),%rdi
  8004201aab:	48 89 7c 24 28       	mov    %rdi,0x28(%rsp)
  8004201ab0:	48 8b 40 30          	mov    0x30(%rax),%rax
  8004201ab4:	48 89 44 24 30       	mov    %rax,0x30(%rsp)
  8004201ab9:	48 89 cf             	mov    %rcx,%rdi
  8004201abc:	48 b8 78 4d 20 04 80 	movabs $0x8004204d78,%rax
  8004201ac3:	00 00 00 
  8004201ac6:	ff d0                	callq  *%rax
					attr = _dwarf_attr_find(&sib, DW_AT_byte_size);
  8004201ac8:	48 8d 85 70 9e ff ff 	lea    -0x6190(%rbp),%rax
  8004201acf:	be 0b 00 00 00       	mov    $0xb,%esi
  8004201ad4:	48 89 c7             	mov    %rax,%rdi
  8004201ad7:	48 b8 7b 4e 20 04 80 	movabs $0x8004204e7b,%rax
  8004201ade:	00 00 00 
  8004201ae1:	ff d0                	callq  *%rax
  8004201ae3:	48 89 45 e8          	mov    %rax,-0x18(%rbp)
        
					if(attr != NULL)
  8004201ae7:	48 83 7d e8 00       	cmpq   $0x0,-0x18(%rbp)
  8004201aec:	74 0c                	je     8004201afa <list_func_die+0x5cf>
					{
						ret_val = attr->u[0].u64;
  8004201aee:	48 8b 45 e8          	mov    -0x18(%rbp),%rax
  8004201af2:	48 8b 40 28          	mov    0x28(%rax),%rax
  8004201af6:	48 89 45 f8          	mov    %rax,-0x8(%rbp)
					}
				}
	
				ret_offset = 0;
  8004201afa:	48 c7 45 f0 00 00 00 	movq   $0x0,-0x10(%rbp)
  8004201b01:	00 
				attr = _dwarf_attr_find(&ret, DW_AT_location);
  8004201b02:	48 8d 85 e0 ce ff ff 	lea    -0x3120(%rbp),%rax
  8004201b09:	be 02 00 00 00       	mov    $0x2,%esi
  8004201b0e:	48 89 c7             	mov    %rax,%rdi
  8004201b11:	48 b8 7b 4e 20 04 80 	movabs $0x8004204e7b,%rax
  8004201b18:	00 00 00 
  8004201b1b:	ff d0                	callq  *%rax
  8004201b1d:	48 89 45 e8          	mov    %rax,-0x18(%rbp)
				if (attr != NULL)
  8004201b21:	48 83 7d e8 00       	cmpq   $0x0,-0x18(%rbp)
  8004201b26:	0f 84 a2 00 00 00    	je     8004201bce <list_func_die+0x6a3>
				{
					Dwarf_Unsigned loc_len = attr->at_block.bl_len;
  8004201b2c:	48 8b 45 e8          	mov    -0x18(%rbp),%rax
  8004201b30:	48 8b 40 38          	mov    0x38(%rax),%rax
  8004201b34:	48 89 45 a0          	mov    %rax,-0x60(%rbp)
					Dwarf_Small *loc_ptr = attr->at_block.bl_data;
  8004201b38:	48 8b 45 e8          	mov    -0x18(%rbp),%rax
  8004201b3c:	48 8b 40 40          	mov    0x40(%rax),%rax
  8004201b40:	48 89 45 98          	mov    %rax,-0x68(%rbp)
					Dwarf_Small atom;
					Dwarf_Unsigned op1, op2;

					switch(attr->at_form) {
  8004201b44:	48 8b 45 e8          	mov    -0x18(%rbp),%rax
  8004201b48:	48 8b 40 18          	mov    0x18(%rax),%rax
  8004201b4c:	48 83 f8 03          	cmp    $0x3,%rax
  8004201b50:	72 7c                	jb     8004201bce <list_func_die+0x6a3>
  8004201b52:	48 83 f8 04          	cmp    $0x4,%rax
  8004201b56:	76 06                	jbe    8004201b5e <list_func_die+0x633>
  8004201b58:	48 83 f8 0a          	cmp    $0xa,%rax
  8004201b5c:	75 70                	jne    8004201bce <list_func_die+0x6a3>
						case DW_FORM_block1:
						case DW_FORM_block2:
						case DW_FORM_block4:
							offset = 0;
  8004201b5e:	48 c7 45 c0 00 00 00 	movq   $0x0,-0x40(%rbp)
  8004201b65:	00 
							atom = *(loc_ptr++);
  8004201b66:	48 8b 45 98          	mov    -0x68(%rbp),%rax
  8004201b6a:	48 8d 50 01          	lea    0x1(%rax),%rdx
  8004201b6e:	48 89 55 98          	mov    %rdx,-0x68(%rbp)
  8004201b72:	0f b6 00             	movzbl (%rax),%eax
  8004201b75:	88 45 97             	mov    %al,-0x69(%rbp)
							offset++;
  8004201b78:	48 83 45 c0 01       	addq   $0x1,-0x40(%rbp)
							if (atom == DW_OP_fbreg) {
  8004201b7d:	80 7d 97 91          	cmpb   $0x91,-0x69(%rbp)
  8004201b81:	75 4a                	jne    8004201bcd <list_func_die+0x6a2>
								uint8_t *p = loc_ptr;
  8004201b83:	48 8b 45 98          	mov    -0x68(%rbp),%rax
  8004201b87:	48 89 85 60 9e ff ff 	mov    %rax,-0x61a0(%rbp)
								ret_offset = _dwarf_decode_sleb128(&p);
  8004201b8e:	48 8d 85 60 9e ff ff 	lea    -0x61a0(%rbp),%rax
  8004201b95:	48 89 c7             	mov    %rax,%rdi
  8004201b98:	48 b8 d7 3a 20 04 80 	movabs $0x8004203ad7,%rax
  8004201b9f:	00 00 00 
  8004201ba2:	ff d0                	callq  *%rax
  8004201ba4:	48 89 45 f0          	mov    %rax,-0x10(%rbp)
								offset += p - loc_ptr;
  8004201ba8:	48 8b 85 60 9e ff ff 	mov    -0x61a0(%rbp),%rax
  8004201baf:	48 89 c2             	mov    %rax,%rdx
  8004201bb2:	48 8b 45 98          	mov    -0x68(%rbp),%rax
  8004201bb6:	48 29 c2             	sub    %rax,%rdx
  8004201bb9:	48 89 d0             	mov    %rdx,%rax
  8004201bbc:	48 01 45 c0          	add    %rax,-0x40(%rbp)
								loc_ptr = p;
  8004201bc0:	48 8b 85 60 9e ff ff 	mov    -0x61a0(%rbp),%rax
  8004201bc7:	48 89 45 98          	mov    %rax,-0x68(%rbp)
							}
							break;
  8004201bcb:	eb 00                	jmp    8004201bcd <list_func_die+0x6a2>
  8004201bcd:	90                   	nop
					}
				}

				info->size_fn_arg[info->rip_fn_narg]=ret_val;// _get_arg_size(ret);
  8004201bce:	48 8b 85 58 9e ff ff 	mov    -0x61a8(%rbp),%rax
  8004201bd5:	8b 48 28             	mov    0x28(%rax),%ecx
  8004201bd8:	48 8b 45 f8          	mov    -0x8(%rbp),%rax
  8004201bdc:	89 c2                	mov    %eax,%edx
  8004201bde:	48 8b 85 58 9e ff ff 	mov    -0x61a8(%rbp),%rax
  8004201be5:	48 63 c9             	movslq %ecx,%rcx
  8004201be8:	48 83 c1 08          	add    $0x8,%rcx
  8004201bec:	89 54 88 0c          	mov    %edx,0xc(%rax,%rcx,4)
				info->offset_fn_arg[info->rip_fn_narg]=ret_offset;
  8004201bf0:	48 8b 85 58 9e ff ff 	mov    -0x61a8(%rbp),%rax
  8004201bf7:	8b 50 28             	mov    0x28(%rax),%edx
  8004201bfa:	48 8b 85 58 9e ff ff 	mov    -0x61a8(%rbp),%rax
  8004201c01:	48 63 d2             	movslq %edx,%rdx
  8004201c04:	48 8d 4a 0a          	lea    0xa(%rdx),%rcx
  8004201c08:	48 8b 55 f0          	mov    -0x10(%rbp),%rdx
  8004201c0c:	48 89 54 c8 08       	mov    %rdx,0x8(%rax,%rcx,8)
				info->rip_fn_narg++;
  8004201c11:	48 8b 85 58 9e ff ff 	mov    -0x61a8(%rbp),%rax
  8004201c18:	8b 40 28             	mov    0x28(%rax),%eax
  8004201c1b:	8d 50 01             	lea    0x1(%rax),%edx
  8004201c1e:	48 8b 85 58 9e ff ff 	mov    -0x61a8(%rbp),%rax
  8004201c25:	89 50 28             	mov    %edx,0x28(%rax)
				sib = ret; 
  8004201c28:	48 8d 85 70 9e ff ff 	lea    -0x6190(%rbp),%rax
  8004201c2f:	48 8d 8d e0 ce ff ff 	lea    -0x3120(%rbp),%rcx
  8004201c36:	ba 70 30 00 00       	mov    $0x3070,%edx
  8004201c3b:	48 89 ce             	mov    %rcx,%rsi
  8004201c3e:	48 89 c7             	mov    %rax,%rdi
  8004201c41:	48 b8 e8 30 20 04 80 	movabs $0x80042030e8,%rax
  8004201c48:	00 00 00 
  8004201c4b:	ff d0                	callq  *%rax
			info->size_fn_arg[info->rip_fn_narg] = ret_val;
			info->offset_fn_arg[info->rip_fn_narg] = ret_offset;
			info->rip_fn_narg++;
			sib = ret; 

			while(dwarf_siblingof(dbg, &sib, &ret, cu) == DW_DLV_OK)	
  8004201c4d:	48 b8 c0 c5 21 04 80 	movabs $0x800421c5c0,%rax
  8004201c54:	00 00 00 
  8004201c57:	48 8b 00             	mov    (%rax),%rax
  8004201c5a:	48 8b 4d e0          	mov    -0x20(%rbp),%rcx
  8004201c5e:	48 8d 95 e0 ce ff ff 	lea    -0x3120(%rbp),%rdx
  8004201c65:	48 8d b5 70 9e ff ff 	lea    -0x6190(%rbp),%rsi
  8004201c6c:	48 89 c7             	mov    %rax,%rdi
  8004201c6f:	48 b8 0e 4f 20 04 80 	movabs $0x8004204f0e,%rax
  8004201c76:	00 00 00 
  8004201c79:	ff d0                	callq  *%rax
  8004201c7b:	85 c0                	test   %eax,%eax
  8004201c7d:	0f 84 8a fd ff ff    	je     8004201a0d <list_func_die+0x4e2>
				info->rip_fn_narg++;
				sib = ret; 
			}
		}
	last:	
		return 1;
  8004201c83:	b8 01 00 00 00       	mov    $0x1,%eax
  8004201c88:	eb 05                	jmp    8004201c8f <list_func_die+0x764>
	}

	return 0;
  8004201c8a:	b8 00 00 00 00       	mov    $0x0,%eax
}
  8004201c8f:	c9                   	leaveq 
  8004201c90:	c3                   	retq   

0000008004201c91 <debuginfo_rip>:
//	negative if not.  But even if it returns negative it has stored some
//	information into '*info'.
//
int
debuginfo_rip(uintptr_t addr, struct Ripdebuginfo *info)
{
  8004201c91:	55                   	push   %rbp
  8004201c92:	48 89 e5             	mov    %rsp,%rbp
  8004201c95:	53                   	push   %rbx
  8004201c96:	48 81 ec c8 91 00 00 	sub    $0x91c8,%rsp
  8004201c9d:	48 89 bd 38 6e ff ff 	mov    %rdi,-0x91c8(%rbp)
  8004201ca4:	48 89 b5 30 6e ff ff 	mov    %rsi,-0x91d0(%rbp)
	static struct Env* lastenv = NULL;
	void* elf;    
	Dwarf_Section *sect;
	Dwarf_CU cu;
	Dwarf_Die die, cudie, die2;
	Dwarf_Regtable *rt = NULL;
  8004201cab:	48 c7 45 e8 00 00 00 	movq   $0x0,-0x18(%rbp)
  8004201cb2:	00 
	//Set up initial pc
	uint64_t pc  = (uintptr_t)addr;
  8004201cb3:	48 8b 85 38 6e ff ff 	mov    -0x91c8(%rbp),%rax
  8004201cba:	48 89 45 e0          	mov    %rax,-0x20(%rbp)

    
	// Initialize *info
	info->rip_file = "<unknown>";
  8004201cbe:	48 8b 85 30 6e ff ff 	mov    -0x91d0(%rbp),%rax
  8004201cc5:	48 bb 6f 99 20 04 80 	movabs $0x800420996f,%rbx
  8004201ccc:	00 00 00 
  8004201ccf:	48 89 18             	mov    %rbx,(%rax)
	info->rip_line = 0;
  8004201cd2:	48 8b 85 30 6e ff ff 	mov    -0x91d0(%rbp),%rax
  8004201cd9:	c7 40 08 00 00 00 00 	movl   $0x0,0x8(%rax)
	info->rip_fn_name = "<unknown>";
  8004201ce0:	48 8b 85 30 6e ff ff 	mov    -0x91d0(%rbp),%rax
  8004201ce7:	48 bb 6f 99 20 04 80 	movabs $0x800420996f,%rbx
  8004201cee:	00 00 00 
  8004201cf1:	48 89 58 10          	mov    %rbx,0x10(%rax)
	info->rip_fn_namelen = 9;
  8004201cf5:	48 8b 85 30 6e ff ff 	mov    -0x91d0(%rbp),%rax
  8004201cfc:	c7 40 18 09 00 00 00 	movl   $0x9,0x18(%rax)
	info->rip_fn_addr = addr;
  8004201d03:	48 8b 85 30 6e ff ff 	mov    -0x91d0(%rbp),%rax
  8004201d0a:	48 8b 95 38 6e ff ff 	mov    -0x91c8(%rbp),%rdx
  8004201d11:	48 89 50 20          	mov    %rdx,0x20(%rax)
	info->rip_fn_narg = 0;
  8004201d15:	48 8b 85 30 6e ff ff 	mov    -0x91d0(%rbp),%rax
  8004201d1c:	c7 40 28 00 00 00 00 	movl   $0x0,0x28(%rax)
    
	// Find the relevant set of stabs
	if (addr >= ULIM) {
  8004201d23:	48 b8 ff ff bf 03 80 	movabs $0x8003bfffff,%rax
  8004201d2a:	00 00 00 
  8004201d2d:	48 39 85 38 6e ff ff 	cmp    %rax,-0x91c8(%rbp)
  8004201d34:	0f 86 95 00 00 00    	jbe    8004201dcf <debuginfo_rip+0x13e>
		elf = (void *)0x10000 + KERNBASE;
  8004201d3a:	48 b8 00 00 01 04 80 	movabs $0x8004010000,%rax
  8004201d41:	00 00 00 
  8004201d44:	48 89 45 d8          	mov    %rax,-0x28(%rbp)
	} else {
		// Can't search for user-level addresses yet!
		panic("User address");
	}
	_dwarf_init(dbg, elf);
  8004201d48:	48 b8 c0 c5 21 04 80 	movabs $0x800421c5c0,%rax
  8004201d4f:	00 00 00 
  8004201d52:	48 8b 00             	mov    (%rax),%rax
  8004201d55:	48 8b 55 d8          	mov    -0x28(%rbp),%rdx
  8004201d59:	48 89 d6             	mov    %rdx,%rsi
  8004201d5c:	48 89 c7             	mov    %rax,%rdi
  8004201d5f:	48 b8 86 3d 20 04 80 	movabs $0x8004203d86,%rax
  8004201d66:	00 00 00 
  8004201d69:	ff d0                	callq  *%rax

	sect = _dwarf_find_section(".debug_info");	
  8004201d6b:	48 bf 86 99 20 04 80 	movabs $0x8004209986,%rdi
  8004201d72:	00 00 00 
  8004201d75:	48 b8 1d 86 20 04 80 	movabs $0x800420861d,%rax
  8004201d7c:	00 00 00 
  8004201d7f:	ff d0                	callq  *%rax
  8004201d81:	48 89 45 d0          	mov    %rax,-0x30(%rbp)
	dbg->dbg_info_offset_elf = (uint64_t)sect->ds_data; 
  8004201d85:	48 b8 c0 c5 21 04 80 	movabs $0x800421c5c0,%rax
  8004201d8c:	00 00 00 
  8004201d8f:	48 8b 00             	mov    (%rax),%rax
  8004201d92:	48 8b 55 d0          	mov    -0x30(%rbp),%rdx
  8004201d96:	48 8b 52 08          	mov    0x8(%rdx),%rdx
  8004201d9a:	48 89 50 08          	mov    %rdx,0x8(%rax)
	dbg->dbg_info_size = sect->ds_size;
  8004201d9e:	48 b8 c0 c5 21 04 80 	movabs $0x800421c5c0,%rax
  8004201da5:	00 00 00 
  8004201da8:	48 8b 00             	mov    (%rax),%rax
  8004201dab:	48 8b 55 d0          	mov    -0x30(%rbp),%rdx
  8004201daf:	48 8b 52 18          	mov    0x18(%rdx),%rdx
  8004201db3:	48 89 50 10          	mov    %rdx,0x10(%rax)

	assert(dbg->dbg_info_size);
  8004201db7:	48 b8 c0 c5 21 04 80 	movabs $0x800421c5c0,%rax
  8004201dbe:	00 00 00 
  8004201dc1:	48 8b 00             	mov    (%rax),%rax
  8004201dc4:	48 8b 40 10          	mov    0x10(%rax),%rax
  8004201dc8:	48 85 c0             	test   %rax,%rax
  8004201dcb:	75 61                	jne    8004201e2e <debuginfo_rip+0x19d>
  8004201dcd:	eb 2a                	jmp    8004201df9 <debuginfo_rip+0x168>
	// Find the relevant set of stabs
	if (addr >= ULIM) {
		elf = (void *)0x10000 + KERNBASE;
	} else {
		// Can't search for user-level addresses yet!
		panic("User address");
  8004201dcf:	48 ba 79 99 20 04 80 	movabs $0x8004209979,%rdx
  8004201dd6:	00 00 00 
  8004201dd9:	be 23 01 00 00       	mov    $0x123,%esi
  8004201dde:	48 bf 61 99 20 04 80 	movabs $0x8004209961,%rdi
  8004201de5:	00 00 00 
  8004201de8:	b8 00 00 00 00       	mov    $0x0,%eax
  8004201ded:	48 b9 98 01 20 04 80 	movabs $0x8004200198,%rcx
  8004201df4:	00 00 00 
  8004201df7:	ff d1                	callq  *%rcx

	sect = _dwarf_find_section(".debug_info");	
	dbg->dbg_info_offset_elf = (uint64_t)sect->ds_data; 
	dbg->dbg_info_size = sect->ds_size;

	assert(dbg->dbg_info_size);
  8004201df9:	48 b9 92 99 20 04 80 	movabs $0x8004209992,%rcx
  8004201e00:	00 00 00 
  8004201e03:	48 ba 4c 99 20 04 80 	movabs $0x800420994c,%rdx
  8004201e0a:	00 00 00 
  8004201e0d:	be 2b 01 00 00       	mov    $0x12b,%esi
  8004201e12:	48 bf 61 99 20 04 80 	movabs $0x8004209961,%rdi
  8004201e19:	00 00 00 
  8004201e1c:	b8 00 00 00 00       	mov    $0x0,%eax
  8004201e21:	49 b8 98 01 20 04 80 	movabs $0x8004200198,%r8
  8004201e28:	00 00 00 
  8004201e2b:	41 ff d0             	callq  *%r8
	while(_get_next_cu(dbg, &cu) == 0)
  8004201e2e:	e9 6f 01 00 00       	jmpq   8004201fa2 <debuginfo_rip+0x311>
	{
		if(dwarf_siblingof(dbg, NULL, &cudie, &cu) == DW_DLE_NO_ENTRY)
  8004201e33:	48 b8 c0 c5 21 04 80 	movabs $0x800421c5c0,%rax
  8004201e3a:	00 00 00 
  8004201e3d:	48 8b 00             	mov    (%rax),%rax
  8004201e40:	48 8d 4d 90          	lea    -0x70(%rbp),%rcx
  8004201e44:	48 8d 95 b0 9e ff ff 	lea    -0x6150(%rbp),%rdx
  8004201e4b:	be 00 00 00 00       	mov    $0x0,%esi
  8004201e50:	48 89 c7             	mov    %rax,%rdi
  8004201e53:	48 b8 0e 4f 20 04 80 	movabs $0x8004204f0e,%rax
  8004201e5a:	00 00 00 
  8004201e5d:	ff d0                	callq  *%rax
  8004201e5f:	83 f8 04             	cmp    $0x4,%eax
  8004201e62:	75 05                	jne    8004201e69 <debuginfo_rip+0x1d8>
			continue;
  8004201e64:	e9 39 01 00 00       	jmpq   8004201fa2 <debuginfo_rip+0x311>

		cudie.cu_header = &cu;
  8004201e69:	48 8d 45 90          	lea    -0x70(%rbp),%rax
  8004201e6d:	48 89 85 10 a2 ff ff 	mov    %rax,-0x5df0(%rbp)
		cudie.cu_die = NULL;
  8004201e74:	48 c7 85 18 a2 ff ff 	movq   $0x0,-0x5de8(%rbp)
  8004201e7b:	00 00 00 00 

		if(dwarf_child(dbg, &cu, &cudie, &die) == DW_DLE_NO_ENTRY)
  8004201e7f:	48 b8 c0 c5 21 04 80 	movabs $0x800421c5c0,%rax
  8004201e86:	00 00 00 
  8004201e89:	48 8b 00             	mov    (%rax),%rax
  8004201e8c:	48 8d 8d 20 cf ff ff 	lea    -0x30e0(%rbp),%rcx
  8004201e93:	48 8d 95 b0 9e ff ff 	lea    -0x6150(%rbp),%rdx
  8004201e9a:	48 8d 75 90          	lea    -0x70(%rbp),%rsi
  8004201e9e:	48 89 c7             	mov    %rax,%rdi
  8004201ea1:	48 b8 52 51 20 04 80 	movabs $0x8004205152,%rax
  8004201ea8:	00 00 00 
  8004201eab:	ff d0                	callq  *%rax
  8004201ead:	83 f8 04             	cmp    $0x4,%eax
  8004201eb0:	75 05                	jne    8004201eb7 <debuginfo_rip+0x226>
			continue;
  8004201eb2:	e9 eb 00 00 00       	jmpq   8004201fa2 <debuginfo_rip+0x311>

		die.cu_header = &cu;
  8004201eb7:	48 8d 45 90          	lea    -0x70(%rbp),%rax
  8004201ebb:	48 89 85 80 d2 ff ff 	mov    %rax,-0x2d80(%rbp)
		die.cu_die = &cudie;
  8004201ec2:	48 8d 85 b0 9e ff ff 	lea    -0x6150(%rbp),%rax
  8004201ec9:	48 89 85 88 d2 ff ff 	mov    %rax,-0x2d78(%rbp)
		while(1)
		{
			if(list_func_die(info, &die, addr))
  8004201ed0:	48 8b 95 38 6e ff ff 	mov    -0x91c8(%rbp),%rdx
  8004201ed7:	48 8d 8d 20 cf ff ff 	lea    -0x30e0(%rbp),%rcx
  8004201ede:	48 8b 85 30 6e ff ff 	mov    -0x91d0(%rbp),%rax
  8004201ee5:	48 89 ce             	mov    %rcx,%rsi
  8004201ee8:	48 89 c7             	mov    %rax,%rdi
  8004201eeb:	48 b8 2b 15 20 04 80 	movabs $0x800420152b,%rax
  8004201ef2:	00 00 00 
  8004201ef5:	ff d0                	callq  *%rax
  8004201ef7:	85 c0                	test   %eax,%eax
  8004201ef9:	74 30                	je     8004201f2b <debuginfo_rip+0x29a>
				goto find_done;
  8004201efb:	90                   	nop

	return -1;

find_done:

	if (dwarf_init_eh_section(dbg, NULL) == DW_DLV_ERROR)
  8004201efc:	48 b8 c0 c5 21 04 80 	movabs $0x800421c5c0,%rax
  8004201f03:	00 00 00 
  8004201f06:	48 8b 00             	mov    (%rax),%rax
  8004201f09:	be 00 00 00 00       	mov    $0x0,%esi
  8004201f0e:	48 89 c7             	mov    %rax,%rdi
  8004201f11:	48 b8 2a 78 20 04 80 	movabs $0x800420782a,%rax
  8004201f18:	00 00 00 
  8004201f1b:	ff d0                	callq  *%rax
  8004201f1d:	83 f8 01             	cmp    $0x1,%eax
  8004201f20:	0f 85 bb 00 00 00    	jne    8004201fe1 <debuginfo_rip+0x350>
  8004201f26:	e9 ac 00 00 00       	jmpq   8004201fd7 <debuginfo_rip+0x346>
		die.cu_die = &cudie;
		while(1)
		{
			if(list_func_die(info, &die, addr))
				goto find_done;
			if(dwarf_siblingof(dbg, &die, &die2, &cu) < 0)
  8004201f2b:	48 b8 c0 c5 21 04 80 	movabs $0x800421c5c0,%rax
  8004201f32:	00 00 00 
  8004201f35:	48 8b 00             	mov    (%rax),%rax
  8004201f38:	48 8d 4d 90          	lea    -0x70(%rbp),%rcx
  8004201f3c:	48 8d 95 40 6e ff ff 	lea    -0x91c0(%rbp),%rdx
  8004201f43:	48 8d b5 20 cf ff ff 	lea    -0x30e0(%rbp),%rsi
  8004201f4a:	48 89 c7             	mov    %rax,%rdi
  8004201f4d:	48 b8 0e 4f 20 04 80 	movabs $0x8004204f0e,%rax
  8004201f54:	00 00 00 
  8004201f57:	ff d0                	callq  *%rax
  8004201f59:	85 c0                	test   %eax,%eax
  8004201f5b:	79 02                	jns    8004201f5f <debuginfo_rip+0x2ce>
				break; 
  8004201f5d:	eb 43                	jmp    8004201fa2 <debuginfo_rip+0x311>
			die = die2;
  8004201f5f:	48 8d 85 20 cf ff ff 	lea    -0x30e0(%rbp),%rax
  8004201f66:	48 8d 8d 40 6e ff ff 	lea    -0x91c0(%rbp),%rcx
  8004201f6d:	ba 70 30 00 00       	mov    $0x3070,%edx
  8004201f72:	48 89 ce             	mov    %rcx,%rsi
  8004201f75:	48 89 c7             	mov    %rax,%rdi
  8004201f78:	48 b8 e8 30 20 04 80 	movabs $0x80042030e8,%rax
  8004201f7f:	00 00 00 
  8004201f82:	ff d0                	callq  *%rax
			die.cu_header = &cu;
  8004201f84:	48 8d 45 90          	lea    -0x70(%rbp),%rax
  8004201f88:	48 89 85 80 d2 ff ff 	mov    %rax,-0x2d80(%rbp)
			die.cu_die = &cudie;
  8004201f8f:	48 8d 85 b0 9e ff ff 	lea    -0x6150(%rbp),%rax
  8004201f96:	48 89 85 88 d2 ff ff 	mov    %rax,-0x2d78(%rbp)
		}
  8004201f9d:	e9 2e ff ff ff       	jmpq   8004201ed0 <debuginfo_rip+0x23f>
	sect = _dwarf_find_section(".debug_info");	
	dbg->dbg_info_offset_elf = (uint64_t)sect->ds_data; 
	dbg->dbg_info_size = sect->ds_size;

	assert(dbg->dbg_info_size);
	while(_get_next_cu(dbg, &cu) == 0)
  8004201fa2:	48 b8 c0 c5 21 04 80 	movabs $0x800421c5c0,%rax
  8004201fa9:	00 00 00 
  8004201fac:	48 8b 00             	mov    (%rax),%rax
  8004201faf:	48 8d 55 90          	lea    -0x70(%rbp),%rdx
  8004201fb3:	48 89 d6             	mov    %rdx,%rsi
  8004201fb6:	48 89 c7             	mov    %rax,%rdi
  8004201fb9:	48 b8 68 3e 20 04 80 	movabs $0x8004203e68,%rax
  8004201fc0:	00 00 00 
  8004201fc3:	ff d0                	callq  *%rax
  8004201fc5:	85 c0                	test   %eax,%eax
  8004201fc7:	0f 84 66 fe ff ff    	je     8004201e33 <debuginfo_rip+0x1a2>
			die.cu_header = &cu;
			die.cu_die = &cudie;
		}
	}

	return -1;
  8004201fcd:	b8 ff ff ff ff       	mov    $0xffffffff,%eax
  8004201fd2:	e9 a0 00 00 00       	jmpq   8004202077 <debuginfo_rip+0x3e6>

find_done:

	if (dwarf_init_eh_section(dbg, NULL) == DW_DLV_ERROR)
		return -1;
  8004201fd7:	b8 ff ff ff ff       	mov    $0xffffffff,%eax
  8004201fdc:	e9 96 00 00 00       	jmpq   8004202077 <debuginfo_rip+0x3e6>

	if (dwarf_get_fde_at_pc(dbg, addr, fde, cie, NULL) == DW_DLV_OK) {
  8004201fe1:	48 b8 b8 c5 21 04 80 	movabs $0x800421c5b8,%rax
  8004201fe8:	00 00 00 
  8004201feb:	48 8b 08             	mov    (%rax),%rcx
  8004201fee:	48 b8 b0 c5 21 04 80 	movabs $0x800421c5b0,%rax
  8004201ff5:	00 00 00 
  8004201ff8:	48 8b 10             	mov    (%rax),%rdx
  8004201ffb:	48 b8 c0 c5 21 04 80 	movabs $0x800421c5c0,%rax
  8004202002:	00 00 00 
  8004202005:	48 8b 00             	mov    (%rax),%rax
  8004202008:	48 8b b5 38 6e ff ff 	mov    -0x91c8(%rbp),%rsi
  800420200f:	41 b8 00 00 00 00    	mov    $0x0,%r8d
  8004202015:	48 89 c7             	mov    %rax,%rdi
  8004202018:	48 b8 93 53 20 04 80 	movabs $0x8004205393,%rax
  800420201f:	00 00 00 
  8004202022:	ff d0                	callq  *%rax
  8004202024:	85 c0                	test   %eax,%eax
  8004202026:	75 4a                	jne    8004202072 <debuginfo_rip+0x3e1>
		dwarf_get_fde_info_for_all_regs(dbg, fde, addr,
  8004202028:	48 8b 85 30 6e ff ff 	mov    -0x91d0(%rbp),%rax
  800420202f:	48 8d 88 a8 00 00 00 	lea    0xa8(%rax),%rcx
  8004202036:	48 b8 b0 c5 21 04 80 	movabs $0x800421c5b0,%rax
  800420203d:	00 00 00 
  8004202040:	48 8b 30             	mov    (%rax),%rsi
  8004202043:	48 b8 c0 c5 21 04 80 	movabs $0x800421c5c0,%rax
  800420204a:	00 00 00 
  800420204d:	48 8b 00             	mov    (%rax),%rax
  8004202050:	48 8b 95 38 6e ff ff 	mov    -0x91c8(%rbp),%rdx
  8004202057:	41 b9 00 00 00 00    	mov    $0x0,%r9d
  800420205d:	41 b8 00 00 00 00    	mov    $0x0,%r8d
  8004202063:	48 89 c7             	mov    %rax,%rdi
  8004202066:	48 b8 9f 66 20 04 80 	movabs $0x800420669f,%rax
  800420206d:	00 00 00 
  8004202070:	ff d0                	callq  *%rax
					break;
			}
		}
#endif
	}
	return 0;
  8004202072:	b8 00 00 00 00       	mov    $0x0,%eax
}
  8004202077:	48 81 c4 c8 91 00 00 	add    $0x91c8,%rsp
  800420207e:	5b                   	pop    %rbx
  800420207f:	5d                   	pop    %rbp
  8004202080:	c3                   	retq   

0000008004202081 <printnum>:
 * using specified putch function and associated pointer putdat.
 */
static void
printnum(void (*putch)(int, void*), void *putdat,
	 unsigned long long num, unsigned base, int width, int padc)
{
  8004202081:	55                   	push   %rbp
  8004202082:	48 89 e5             	mov    %rsp,%rbp
  8004202085:	53                   	push   %rbx
  8004202086:	48 83 ec 38          	sub    $0x38,%rsp
  800420208a:	48 89 7d e8          	mov    %rdi,-0x18(%rbp)
  800420208e:	48 89 75 e0          	mov    %rsi,-0x20(%rbp)
  8004202092:	48 89 55 d8          	mov    %rdx,-0x28(%rbp)
  8004202096:	89 4d d4             	mov    %ecx,-0x2c(%rbp)
  8004202099:	44 89 45 d0          	mov    %r8d,-0x30(%rbp)
  800420209d:	44 89 4d cc          	mov    %r9d,-0x34(%rbp)
	// first recursively print all preceding (more significant) digits
	if (num >= base) {
  80042020a1:	8b 45 d4             	mov    -0x2c(%rbp),%eax
  80042020a4:	48 3b 45 d8          	cmp    -0x28(%rbp),%rax
  80042020a8:	77 3b                	ja     80042020e5 <printnum+0x64>
		printnum(putch, putdat, num / base, base, width - 1, padc);
  80042020aa:	8b 45 d0             	mov    -0x30(%rbp),%eax
  80042020ad:	44 8d 40 ff          	lea    -0x1(%rax),%r8d
  80042020b1:	8b 5d d4             	mov    -0x2c(%rbp),%ebx
  80042020b4:	48 8b 45 d8          	mov    -0x28(%rbp),%rax
  80042020b8:	ba 00 00 00 00       	mov    $0x0,%edx
  80042020bd:	48 f7 f3             	div    %rbx
  80042020c0:	48 89 c2             	mov    %rax,%rdx
  80042020c3:	8b 7d cc             	mov    -0x34(%rbp),%edi
  80042020c6:	8b 4d d4             	mov    -0x2c(%rbp),%ecx
  80042020c9:	48 8b 75 e0          	mov    -0x20(%rbp),%rsi
  80042020cd:	48 8b 45 e8          	mov    -0x18(%rbp),%rax
  80042020d1:	41 89 f9             	mov    %edi,%r9d
  80042020d4:	48 89 c7             	mov    %rax,%rdi
  80042020d7:	48 b8 81 20 20 04 80 	movabs $0x8004202081,%rax
  80042020de:	00 00 00 
  80042020e1:	ff d0                	callq  *%rax
  80042020e3:	eb 1e                	jmp    8004202103 <printnum+0x82>
	} else {
		// print any needed pad characters before first digit
		while (--width > 0)
  80042020e5:	eb 12                	jmp    80042020f9 <printnum+0x78>
			putch(padc, putdat);
  80042020e7:	48 8b 4d e0          	mov    -0x20(%rbp),%rcx
  80042020eb:	8b 55 cc             	mov    -0x34(%rbp),%edx
  80042020ee:	48 8b 45 e8          	mov    -0x18(%rbp),%rax
  80042020f2:	48 89 ce             	mov    %rcx,%rsi
  80042020f5:	89 d7                	mov    %edx,%edi
  80042020f7:	ff d0                	callq  *%rax
	// first recursively print all preceding (more significant) digits
	if (num >= base) {
		printnum(putch, putdat, num / base, base, width - 1, padc);
	} else {
		// print any needed pad characters before first digit
		while (--width > 0)
  80042020f9:	83 6d d0 01          	subl   $0x1,-0x30(%rbp)
  80042020fd:	83 7d d0 00          	cmpl   $0x0,-0x30(%rbp)
  8004202101:	7f e4                	jg     80042020e7 <printnum+0x66>
			putch(padc, putdat);
	}

	// then print this (the least significant) digit
	putch("0123456789abcdef"[num % base], putdat);
  8004202103:	8b 4d d4             	mov    -0x2c(%rbp),%ecx
  8004202106:	48 8b 45 d8          	mov    -0x28(%rbp),%rax
  800420210a:	ba 00 00 00 00       	mov    $0x0,%edx
  800420210f:	48 f7 f1             	div    %rcx
  8004202112:	48 89 d0             	mov    %rdx,%rax
  8004202115:	48 ba f0 9a 20 04 80 	movabs $0x8004209af0,%rdx
  800420211c:	00 00 00 
  800420211f:	0f b6 04 02          	movzbl (%rdx,%rax,1),%eax
  8004202123:	0f be d0             	movsbl %al,%edx
  8004202126:	48 8b 4d e0          	mov    -0x20(%rbp),%rcx
  800420212a:	48 8b 45 e8          	mov    -0x18(%rbp),%rax
  800420212e:	48 89 ce             	mov    %rcx,%rsi
  8004202131:	89 d7                	mov    %edx,%edi
  8004202133:	ff d0                	callq  *%rax
}
  8004202135:	48 83 c4 38          	add    $0x38,%rsp
  8004202139:	5b                   	pop    %rbx
  800420213a:	5d                   	pop    %rbp
  800420213b:	c3                   	retq   

000000800420213c <getuint>:

// Get an unsigned int of various possible sizes from a varargs list,
// depending on the lflag parameter.
static unsigned long long
getuint(va_list *ap, int lflag)
{
  800420213c:	55                   	push   %rbp
  800420213d:	48 89 e5             	mov    %rsp,%rbp
  8004202140:	48 83 ec 1c          	sub    $0x1c,%rsp
  8004202144:	48 89 7d e8          	mov    %rdi,-0x18(%rbp)
  8004202148:	89 75 e4             	mov    %esi,-0x1c(%rbp)
	unsigned long long x;    
	if (lflag >= 2)
  800420214b:	83 7d e4 01          	cmpl   $0x1,-0x1c(%rbp)
  800420214f:	7e 52                	jle    80042021a3 <getuint+0x67>
		x= va_arg(*ap, unsigned long long);
  8004202151:	48 8b 45 e8          	mov    -0x18(%rbp),%rax
  8004202155:	8b 00                	mov    (%rax),%eax
  8004202157:	83 f8 30             	cmp    $0x30,%eax
  800420215a:	73 24                	jae    8004202180 <getuint+0x44>
  800420215c:	48 8b 45 e8          	mov    -0x18(%rbp),%rax
  8004202160:	48 8b 50 10          	mov    0x10(%rax),%rdx
  8004202164:	48 8b 45 e8          	mov    -0x18(%rbp),%rax
  8004202168:	8b 00                	mov    (%rax),%eax
  800420216a:	89 c0                	mov    %eax,%eax
  800420216c:	48 01 d0             	add    %rdx,%rax
  800420216f:	48 8b 55 e8          	mov    -0x18(%rbp),%rdx
  8004202173:	8b 12                	mov    (%rdx),%edx
  8004202175:	8d 4a 08             	lea    0x8(%rdx),%ecx
  8004202178:	48 8b 55 e8          	mov    -0x18(%rbp),%rdx
  800420217c:	89 0a                	mov    %ecx,(%rdx)
  800420217e:	eb 17                	jmp    8004202197 <getuint+0x5b>
  8004202180:	48 8b 45 e8          	mov    -0x18(%rbp),%rax
  8004202184:	48 8b 50 08          	mov    0x8(%rax),%rdx
  8004202188:	48 89 d0             	mov    %rdx,%rax
  800420218b:	48 8d 4a 08          	lea    0x8(%rdx),%rcx
  800420218f:	48 8b 55 e8          	mov    -0x18(%rbp),%rdx
  8004202193:	48 89 4a 08          	mov    %rcx,0x8(%rdx)
  8004202197:	48 8b 00             	mov    (%rax),%rax
  800420219a:	48 89 45 f8          	mov    %rax,-0x8(%rbp)
  800420219e:	e9 a3 00 00 00       	jmpq   8004202246 <getuint+0x10a>
	else if (lflag)
  80042021a3:	83 7d e4 00          	cmpl   $0x0,-0x1c(%rbp)
  80042021a7:	74 4f                	je     80042021f8 <getuint+0xbc>
		x= va_arg(*ap, unsigned long);
  80042021a9:	48 8b 45 e8          	mov    -0x18(%rbp),%rax
  80042021ad:	8b 00                	mov    (%rax),%eax
  80042021af:	83 f8 30             	cmp    $0x30,%eax
  80042021b2:	73 24                	jae    80042021d8 <getuint+0x9c>
  80042021b4:	48 8b 45 e8          	mov    -0x18(%rbp),%rax
  80042021b8:	48 8b 50 10          	mov    0x10(%rax),%rdx
  80042021bc:	48 8b 45 e8          	mov    -0x18(%rbp),%rax
  80042021c0:	8b 00                	mov    (%rax),%eax
  80042021c2:	89 c0                	mov    %eax,%eax
  80042021c4:	48 01 d0             	add    %rdx,%rax
  80042021c7:	48 8b 55 e8          	mov    -0x18(%rbp),%rdx
  80042021cb:	8b 12                	mov    (%rdx),%edx
  80042021cd:	8d 4a 08             	lea    0x8(%rdx),%ecx
  80042021d0:	48 8b 55 e8          	mov    -0x18(%rbp),%rdx
  80042021d4:	89 0a                	mov    %ecx,(%rdx)
  80042021d6:	eb 17                	jmp    80042021ef <getuint+0xb3>
  80042021d8:	48 8b 45 e8          	mov    -0x18(%rbp),%rax
  80042021dc:	48 8b 50 08          	mov    0x8(%rax),%rdx
  80042021e0:	48 89 d0             	mov    %rdx,%rax
  80042021e3:	48 8d 4a 08          	lea    0x8(%rdx),%rcx
  80042021e7:	48 8b 55 e8          	mov    -0x18(%rbp),%rdx
  80042021eb:	48 89 4a 08          	mov    %rcx,0x8(%rdx)
  80042021ef:	48 8b 00             	mov    (%rax),%rax
  80042021f2:	48 89 45 f8          	mov    %rax,-0x8(%rbp)
  80042021f6:	eb 4e                	jmp    8004202246 <getuint+0x10a>
	else
		x= va_arg(*ap, unsigned int);
  80042021f8:	48 8b 45 e8          	mov    -0x18(%rbp),%rax
  80042021fc:	8b 00                	mov    (%rax),%eax
  80042021fe:	83 f8 30             	cmp    $0x30,%eax
  8004202201:	73 24                	jae    8004202227 <getuint+0xeb>
  8004202203:	48 8b 45 e8          	mov    -0x18(%rbp),%rax
  8004202207:	48 8b 50 10          	mov    0x10(%rax),%rdx
  800420220b:	48 8b 45 e8          	mov    -0x18(%rbp),%rax
  800420220f:	8b 00                	mov    (%rax),%eax
  8004202211:	89 c0                	mov    %eax,%eax
  8004202213:	48 01 d0             	add    %rdx,%rax
  8004202216:	48 8b 55 e8          	mov    -0x18(%rbp),%rdx
  800420221a:	8b 12                	mov    (%rdx),%edx
  800420221c:	8d 4a 08             	lea    0x8(%rdx),%ecx
  800420221f:	48 8b 55 e8          	mov    -0x18(%rbp),%rdx
  8004202223:	89 0a                	mov    %ecx,(%rdx)
  8004202225:	eb 17                	jmp    800420223e <getuint+0x102>
  8004202227:	48 8b 45 e8          	mov    -0x18(%rbp),%rax
  800420222b:	48 8b 50 08          	mov    0x8(%rax),%rdx
  800420222f:	48 89 d0             	mov    %rdx,%rax
  8004202232:	48 8d 4a 08          	lea    0x8(%rdx),%rcx
  8004202236:	48 8b 55 e8          	mov    -0x18(%rbp),%rdx
  800420223a:	48 89 4a 08          	mov    %rcx,0x8(%rdx)
  800420223e:	8b 00                	mov    (%rax),%eax
  8004202240:	89 c0                	mov    %eax,%eax
  8004202242:	48 89 45 f8          	mov    %rax,-0x8(%rbp)
	return x;
  8004202246:	48 8b 45 f8          	mov    -0x8(%rbp),%rax
}
  800420224a:	c9                   	leaveq 
  800420224b:	c3                   	retq   

000000800420224c <getint>:

// Same as getuint but signed - can't use getuint
// because of sign extension
static long long
getint(va_list *ap, int lflag)
{
  800420224c:	55                   	push   %rbp
  800420224d:	48 89 e5             	mov    %rsp,%rbp
  8004202250:	48 83 ec 1c          	sub    $0x1c,%rsp
  8004202254:	48 89 7d e8          	mov    %rdi,-0x18(%rbp)
  8004202258:	89 75 e4             	mov    %esi,-0x1c(%rbp)
	long long x;
	if (lflag >= 2)
  800420225b:	83 7d e4 01          	cmpl   $0x1,-0x1c(%rbp)
  800420225f:	7e 52                	jle    80042022b3 <getint+0x67>
		x=va_arg(*ap, long long);
  8004202261:	48 8b 45 e8          	mov    -0x18(%rbp),%rax
  8004202265:	8b 00                	mov    (%rax),%eax
  8004202267:	83 f8 30             	cmp    $0x30,%eax
  800420226a:	73 24                	jae    8004202290 <getint+0x44>
  800420226c:	48 8b 45 e8          	mov    -0x18(%rbp),%rax
  8004202270:	48 8b 50 10          	mov    0x10(%rax),%rdx
  8004202274:	48 8b 45 e8          	mov    -0x18(%rbp),%rax
  8004202278:	8b 00                	mov    (%rax),%eax
  800420227a:	89 c0                	mov    %eax,%eax
  800420227c:	48 01 d0             	add    %rdx,%rax
  800420227f:	48 8b 55 e8          	mov    -0x18(%rbp),%rdx
  8004202283:	8b 12                	mov    (%rdx),%edx
  8004202285:	8d 4a 08             	lea    0x8(%rdx),%ecx
  8004202288:	48 8b 55 e8          	mov    -0x18(%rbp),%rdx
  800420228c:	89 0a                	mov    %ecx,(%rdx)
  800420228e:	eb 17                	jmp    80042022a7 <getint+0x5b>
  8004202290:	48 8b 45 e8          	mov    -0x18(%rbp),%rax
  8004202294:	48 8b 50 08          	mov    0x8(%rax),%rdx
  8004202298:	48 89 d0             	mov    %rdx,%rax
  800420229b:	48 8d 4a 08          	lea    0x8(%rdx),%rcx
  800420229f:	48 8b 55 e8          	mov    -0x18(%rbp),%rdx
  80042022a3:	48 89 4a 08          	mov    %rcx,0x8(%rdx)
  80042022a7:	48 8b 00             	mov    (%rax),%rax
  80042022aa:	48 89 45 f8          	mov    %rax,-0x8(%rbp)
  80042022ae:	e9 a3 00 00 00       	jmpq   8004202356 <getint+0x10a>
	else if (lflag)
  80042022b3:	83 7d e4 00          	cmpl   $0x0,-0x1c(%rbp)
  80042022b7:	74 4f                	je     8004202308 <getint+0xbc>
		x=va_arg(*ap, long);
  80042022b9:	48 8b 45 e8          	mov    -0x18(%rbp),%rax
  80042022bd:	8b 00                	mov    (%rax),%eax
  80042022bf:	83 f8 30             	cmp    $0x30,%eax
  80042022c2:	73 24                	jae    80042022e8 <getint+0x9c>
  80042022c4:	48 8b 45 e8          	mov    -0x18(%rbp),%rax
  80042022c8:	48 8b 50 10          	mov    0x10(%rax),%rdx
  80042022cc:	48 8b 45 e8          	mov    -0x18(%rbp),%rax
  80042022d0:	8b 00                	mov    (%rax),%eax
  80042022d2:	89 c0                	mov    %eax,%eax
  80042022d4:	48 01 d0             	add    %rdx,%rax
  80042022d7:	48 8b 55 e8          	mov    -0x18(%rbp),%rdx
  80042022db:	8b 12                	mov    (%rdx),%edx
  80042022dd:	8d 4a 08             	lea    0x8(%rdx),%ecx
  80042022e0:	48 8b 55 e8          	mov    -0x18(%rbp),%rdx
  80042022e4:	89 0a                	mov    %ecx,(%rdx)
  80042022e6:	eb 17                	jmp    80042022ff <getint+0xb3>
  80042022e8:	48 8b 45 e8          	mov    -0x18(%rbp),%rax
  80042022ec:	48 8b 50 08          	mov    0x8(%rax),%rdx
  80042022f0:	48 89 d0             	mov    %rdx,%rax
  80042022f3:	48 8d 4a 08          	lea    0x8(%rdx),%rcx
  80042022f7:	48 8b 55 e8          	mov    -0x18(%rbp),%rdx
  80042022fb:	48 89 4a 08          	mov    %rcx,0x8(%rdx)
  80042022ff:	48 8b 00             	mov    (%rax),%rax
  8004202302:	48 89 45 f8          	mov    %rax,-0x8(%rbp)
  8004202306:	eb 4e                	jmp    8004202356 <getint+0x10a>
	else
		x=va_arg(*ap, int);
  8004202308:	48 8b 45 e8          	mov    -0x18(%rbp),%rax
  800420230c:	8b 00                	mov    (%rax),%eax
  800420230e:	83 f8 30             	cmp    $0x30,%eax
  8004202311:	73 24                	jae    8004202337 <getint+0xeb>
  8004202313:	48 8b 45 e8          	mov    -0x18(%rbp),%rax
  8004202317:	48 8b 50 10          	mov    0x10(%rax),%rdx
  800420231b:	48 8b 45 e8          	mov    -0x18(%rbp),%rax
  800420231f:	8b 00                	mov    (%rax),%eax
  8004202321:	89 c0                	mov    %eax,%eax
  8004202323:	48 01 d0             	add    %rdx,%rax
  8004202326:	48 8b 55 e8          	mov    -0x18(%rbp),%rdx
  800420232a:	8b 12                	mov    (%rdx),%edx
  800420232c:	8d 4a 08             	lea    0x8(%rdx),%ecx
  800420232f:	48 8b 55 e8          	mov    -0x18(%rbp),%rdx
  8004202333:	89 0a                	mov    %ecx,(%rdx)
  8004202335:	eb 17                	jmp    800420234e <getint+0x102>
  8004202337:	48 8b 45 e8          	mov    -0x18(%rbp),%rax
  800420233b:	48 8b 50 08          	mov    0x8(%rax),%rdx
  800420233f:	48 89 d0             	mov    %rdx,%rax
  8004202342:	48 8d 4a 08          	lea    0x8(%rdx),%rcx
  8004202346:	48 8b 55 e8          	mov    -0x18(%rbp),%rdx
  800420234a:	48 89 4a 08          	mov    %rcx,0x8(%rdx)
  800420234e:	8b 00                	mov    (%rax),%eax
  8004202350:	48 98                	cltq   
  8004202352:	48 89 45 f8          	mov    %rax,-0x8(%rbp)
	return x;
  8004202356:	48 8b 45 f8          	mov    -0x8(%rbp),%rax
}
  800420235a:	c9                   	leaveq 
  800420235b:	c3                   	retq   

000000800420235c <vprintfmt>:
// Main function to format and print a string.
void printfmt(void (*putch)(int, void*), void *putdat, const char *fmt, ...);

void
vprintfmt(void (*putch)(int, void*), void *putdat, const char *fmt, va_list ap)
{
  800420235c:	55                   	push   %rbp
  800420235d:	48 89 e5             	mov    %rsp,%rbp
  8004202360:	41 54                	push   %r12
  8004202362:	53                   	push   %rbx
  8004202363:	48 83 ec 60          	sub    $0x60,%rsp
  8004202367:	48 89 7d a8          	mov    %rdi,-0x58(%rbp)
  800420236b:	48 89 75 a0          	mov    %rsi,-0x60(%rbp)
  800420236f:	48 89 55 98          	mov    %rdx,-0x68(%rbp)
  8004202373:	48 89 4d 90          	mov    %rcx,-0x70(%rbp)
	register int ch, err;
	unsigned long long num;
	int base, lflag, width, precision, altflag;
	char padc;
	va_list aq;
	va_copy(aq,ap);
  8004202377:	48 8d 45 b8          	lea    -0x48(%rbp),%rax
  800420237b:	48 8b 55 90          	mov    -0x70(%rbp),%rdx
  800420237f:	48 8b 0a             	mov    (%rdx),%rcx
  8004202382:	48 89 08             	mov    %rcx,(%rax)
  8004202385:	48 8b 4a 08          	mov    0x8(%rdx),%rcx
  8004202389:	48 89 48 08          	mov    %rcx,0x8(%rax)
  800420238d:	48 8b 52 10          	mov    0x10(%rdx),%rdx
  8004202391:	48 89 50 10          	mov    %rdx,0x10(%rax)
	while (1) {
		while ((ch = *(unsigned char *) fmt++) != '%') {
  8004202395:	eb 17                	jmp    80042023ae <vprintfmt+0x52>
			if (ch == '\0')
  8004202397:	85 db                	test   %ebx,%ebx
  8004202399:	0f 84 cc 04 00 00    	je     800420286b <vprintfmt+0x50f>
				return;
			putch(ch, putdat);
  800420239f:	48 8b 55 a0          	mov    -0x60(%rbp),%rdx
  80042023a3:	48 8b 45 a8          	mov    -0x58(%rbp),%rax
  80042023a7:	48 89 d6             	mov    %rdx,%rsi
  80042023aa:	89 df                	mov    %ebx,%edi
  80042023ac:	ff d0                	callq  *%rax
	int base, lflag, width, precision, altflag;
	char padc;
	va_list aq;
	va_copy(aq,ap);
	while (1) {
		while ((ch = *(unsigned char *) fmt++) != '%') {
  80042023ae:	48 8b 45 98          	mov    -0x68(%rbp),%rax
  80042023b2:	48 8d 50 01          	lea    0x1(%rax),%rdx
  80042023b6:	48 89 55 98          	mov    %rdx,-0x68(%rbp)
  80042023ba:	0f b6 00             	movzbl (%rax),%eax
  80042023bd:	0f b6 d8             	movzbl %al,%ebx
  80042023c0:	83 fb 25             	cmp    $0x25,%ebx
  80042023c3:	75 d2                	jne    8004202397 <vprintfmt+0x3b>
				return;
			putch(ch, putdat);
		}

		// Process a %-escape sequence
		padc = ' ';
  80042023c5:	c6 45 d3 20          	movb   $0x20,-0x2d(%rbp)
		width = -1;
  80042023c9:	c7 45 dc ff ff ff ff 	movl   $0xffffffff,-0x24(%rbp)
		precision = -1;
  80042023d0:	c7 45 d8 ff ff ff ff 	movl   $0xffffffff,-0x28(%rbp)
		lflag = 0;
  80042023d7:	c7 45 e0 00 00 00 00 	movl   $0x0,-0x20(%rbp)
		altflag = 0;
  80042023de:	c7 45 d4 00 00 00 00 	movl   $0x0,-0x2c(%rbp)
	reswitch:
		switch (ch = *(unsigned char *) fmt++) {
  80042023e5:	48 8b 45 98          	mov    -0x68(%rbp),%rax
  80042023e9:	48 8d 50 01          	lea    0x1(%rax),%rdx
  80042023ed:	48 89 55 98          	mov    %rdx,-0x68(%rbp)
  80042023f1:	0f b6 00             	movzbl (%rax),%eax
  80042023f4:	0f b6 d8             	movzbl %al,%ebx
  80042023f7:	8d 43 dd             	lea    -0x23(%rbx),%eax
  80042023fa:	83 f8 55             	cmp    $0x55,%eax
  80042023fd:	0f 87 34 04 00 00    	ja     8004202837 <vprintfmt+0x4db>
  8004202403:	89 c0                	mov    %eax,%eax
  8004202405:	48 8d 14 c5 00 00 00 	lea    0x0(,%rax,8),%rdx
  800420240c:	00 
  800420240d:	48 b8 18 9b 20 04 80 	movabs $0x8004209b18,%rax
  8004202414:	00 00 00 
  8004202417:	48 01 d0             	add    %rdx,%rax
  800420241a:	48 8b 00             	mov    (%rax),%rax
  800420241d:	ff e0                	jmpq   *%rax

			// flag to pad on the right
		case '-':
			padc = '-';
  800420241f:	c6 45 d3 2d          	movb   $0x2d,-0x2d(%rbp)
			goto reswitch;
  8004202423:	eb c0                	jmp    80042023e5 <vprintfmt+0x89>

			// flag to pad with 0's instead of spaces
		case '0':
			padc = '0';
  8004202425:	c6 45 d3 30          	movb   $0x30,-0x2d(%rbp)
			goto reswitch;
  8004202429:	eb ba                	jmp    80042023e5 <vprintfmt+0x89>
		case '5':
		case '6':
		case '7':
		case '8':
		case '9':
			for (precision = 0; ; ++fmt) {
  800420242b:	c7 45 d8 00 00 00 00 	movl   $0x0,-0x28(%rbp)
				precision = precision * 10 + ch - '0';
  8004202432:	8b 55 d8             	mov    -0x28(%rbp),%edx
  8004202435:	89 d0                	mov    %edx,%eax
  8004202437:	c1 e0 02             	shl    $0x2,%eax
  800420243a:	01 d0                	add    %edx,%eax
  800420243c:	01 c0                	add    %eax,%eax
  800420243e:	01 d8                	add    %ebx,%eax
  8004202440:	83 e8 30             	sub    $0x30,%eax
  8004202443:	89 45 d8             	mov    %eax,-0x28(%rbp)
				ch = *fmt;
  8004202446:	48 8b 45 98          	mov    -0x68(%rbp),%rax
  800420244a:	0f b6 00             	movzbl (%rax),%eax
  800420244d:	0f be d8             	movsbl %al,%ebx
				if (ch < '0' || ch > '9')
  8004202450:	83 fb 2f             	cmp    $0x2f,%ebx
  8004202453:	7e 0c                	jle    8004202461 <vprintfmt+0x105>
  8004202455:	83 fb 39             	cmp    $0x39,%ebx
  8004202458:	7f 07                	jg     8004202461 <vprintfmt+0x105>
		case '5':
		case '6':
		case '7':
		case '8':
		case '9':
			for (precision = 0; ; ++fmt) {
  800420245a:	48 83 45 98 01       	addq   $0x1,-0x68(%rbp)
				precision = precision * 10 + ch - '0';
				ch = *fmt;
				if (ch < '0' || ch > '9')
					break;
			}
  800420245f:	eb d1                	jmp    8004202432 <vprintfmt+0xd6>
			goto process_precision;
  8004202461:	eb 58                	jmp    80042024bb <vprintfmt+0x15f>

		case '*':
			precision = va_arg(aq, int);
  8004202463:	8b 45 b8             	mov    -0x48(%rbp),%eax
  8004202466:	83 f8 30             	cmp    $0x30,%eax
  8004202469:	73 17                	jae    8004202482 <vprintfmt+0x126>
  800420246b:	48 8b 55 c8          	mov    -0x38(%rbp),%rdx
  800420246f:	8b 45 b8             	mov    -0x48(%rbp),%eax
  8004202472:	89 c0                	mov    %eax,%eax
  8004202474:	48 01 d0             	add    %rdx,%rax
  8004202477:	8b 55 b8             	mov    -0x48(%rbp),%edx
  800420247a:	83 c2 08             	add    $0x8,%edx
  800420247d:	89 55 b8             	mov    %edx,-0x48(%rbp)
  8004202480:	eb 0f                	jmp    8004202491 <vprintfmt+0x135>
  8004202482:	48 8b 55 c0          	mov    -0x40(%rbp),%rdx
  8004202486:	48 89 d0             	mov    %rdx,%rax
  8004202489:	48 83 c2 08          	add    $0x8,%rdx
  800420248d:	48 89 55 c0          	mov    %rdx,-0x40(%rbp)
  8004202491:	8b 00                	mov    (%rax),%eax
  8004202493:	89 45 d8             	mov    %eax,-0x28(%rbp)
			goto process_precision;
  8004202496:	eb 23                	jmp    80042024bb <vprintfmt+0x15f>

		case '.':
			if (width < 0)
  8004202498:	83 7d dc 00          	cmpl   $0x0,-0x24(%rbp)
  800420249c:	79 0c                	jns    80042024aa <vprintfmt+0x14e>
				width = 0;
  800420249e:	c7 45 dc 00 00 00 00 	movl   $0x0,-0x24(%rbp)
			goto reswitch;
  80042024a5:	e9 3b ff ff ff       	jmpq   80042023e5 <vprintfmt+0x89>
  80042024aa:	e9 36 ff ff ff       	jmpq   80042023e5 <vprintfmt+0x89>

		case '#':
			altflag = 1;
  80042024af:	c7 45 d4 01 00 00 00 	movl   $0x1,-0x2c(%rbp)
			goto reswitch;
  80042024b6:	e9 2a ff ff ff       	jmpq   80042023e5 <vprintfmt+0x89>

		process_precision:
			if (width < 0)
  80042024bb:	83 7d dc 00          	cmpl   $0x0,-0x24(%rbp)
  80042024bf:	79 12                	jns    80042024d3 <vprintfmt+0x177>
				width = precision, precision = -1;
  80042024c1:	8b 45 d8             	mov    -0x28(%rbp),%eax
  80042024c4:	89 45 dc             	mov    %eax,-0x24(%rbp)
  80042024c7:	c7 45 d8 ff ff ff ff 	movl   $0xffffffff,-0x28(%rbp)
			goto reswitch;
  80042024ce:	e9 12 ff ff ff       	jmpq   80042023e5 <vprintfmt+0x89>
  80042024d3:	e9 0d ff ff ff       	jmpq   80042023e5 <vprintfmt+0x89>

			// long flag (doubled for long long)
		case 'l':
			lflag++;
  80042024d8:	83 45 e0 01          	addl   $0x1,-0x20(%rbp)
			goto reswitch;
  80042024dc:	e9 04 ff ff ff       	jmpq   80042023e5 <vprintfmt+0x89>

			// character
		case 'c':
			putch(va_arg(aq, int), putdat);
  80042024e1:	8b 45 b8             	mov    -0x48(%rbp),%eax
  80042024e4:	83 f8 30             	cmp    $0x30,%eax
  80042024e7:	73 17                	jae    8004202500 <vprintfmt+0x1a4>
  80042024e9:	48 8b 55 c8          	mov    -0x38(%rbp),%rdx
  80042024ed:	8b 45 b8             	mov    -0x48(%rbp),%eax
  80042024f0:	89 c0                	mov    %eax,%eax
  80042024f2:	48 01 d0             	add    %rdx,%rax
  80042024f5:	8b 55 b8             	mov    -0x48(%rbp),%edx
  80042024f8:	83 c2 08             	add    $0x8,%edx
  80042024fb:	89 55 b8             	mov    %edx,-0x48(%rbp)
  80042024fe:	eb 0f                	jmp    800420250f <vprintfmt+0x1b3>
  8004202500:	48 8b 55 c0          	mov    -0x40(%rbp),%rdx
  8004202504:	48 89 d0             	mov    %rdx,%rax
  8004202507:	48 83 c2 08          	add    $0x8,%rdx
  800420250b:	48 89 55 c0          	mov    %rdx,-0x40(%rbp)
  800420250f:	8b 10                	mov    (%rax),%edx
  8004202511:	48 8b 4d a0          	mov    -0x60(%rbp),%rcx
  8004202515:	48 8b 45 a8          	mov    -0x58(%rbp),%rax
  8004202519:	48 89 ce             	mov    %rcx,%rsi
  800420251c:	89 d7                	mov    %edx,%edi
  800420251e:	ff d0                	callq  *%rax
			break;
  8004202520:	e9 40 03 00 00       	jmpq   8004202865 <vprintfmt+0x509>

			// error message
		case 'e':
			err = va_arg(aq, int);
  8004202525:	8b 45 b8             	mov    -0x48(%rbp),%eax
  8004202528:	83 f8 30             	cmp    $0x30,%eax
  800420252b:	73 17                	jae    8004202544 <vprintfmt+0x1e8>
  800420252d:	48 8b 55 c8          	mov    -0x38(%rbp),%rdx
  8004202531:	8b 45 b8             	mov    -0x48(%rbp),%eax
  8004202534:	89 c0                	mov    %eax,%eax
  8004202536:	48 01 d0             	add    %rdx,%rax
  8004202539:	8b 55 b8             	mov    -0x48(%rbp),%edx
  800420253c:	83 c2 08             	add    $0x8,%edx
  800420253f:	89 55 b8             	mov    %edx,-0x48(%rbp)
  8004202542:	eb 0f                	jmp    8004202553 <vprintfmt+0x1f7>
  8004202544:	48 8b 55 c0          	mov    -0x40(%rbp),%rdx
  8004202548:	48 89 d0             	mov    %rdx,%rax
  800420254b:	48 83 c2 08          	add    $0x8,%rdx
  800420254f:	48 89 55 c0          	mov    %rdx,-0x40(%rbp)
  8004202553:	8b 18                	mov    (%rax),%ebx
			if (err < 0)
  8004202555:	85 db                	test   %ebx,%ebx
  8004202557:	79 02                	jns    800420255b <vprintfmt+0x1ff>
				err = -err;
  8004202559:	f7 db                	neg    %ebx
			if (err >= MAXERROR || (p = error_string[err]) == NULL)
  800420255b:	83 fb 15             	cmp    $0x15,%ebx
  800420255e:	7f 16                	jg     8004202576 <vprintfmt+0x21a>
  8004202560:	48 b8 40 9a 20 04 80 	movabs $0x8004209a40,%rax
  8004202567:	00 00 00 
  800420256a:	48 63 d3             	movslq %ebx,%rdx
  800420256d:	4c 8b 24 d0          	mov    (%rax,%rdx,8),%r12
  8004202571:	4d 85 e4             	test   %r12,%r12
  8004202574:	75 2e                	jne    80042025a4 <vprintfmt+0x248>
				printfmt(putch, putdat, "error %d", err);
  8004202576:	48 8b 75 a0          	mov    -0x60(%rbp),%rsi
  800420257a:	48 8b 45 a8          	mov    -0x58(%rbp),%rax
  800420257e:	89 d9                	mov    %ebx,%ecx
  8004202580:	48 ba 01 9b 20 04 80 	movabs $0x8004209b01,%rdx
  8004202587:	00 00 00 
  800420258a:	48 89 c7             	mov    %rax,%rdi
  800420258d:	b8 00 00 00 00       	mov    $0x0,%eax
  8004202592:	49 b8 74 28 20 04 80 	movabs $0x8004202874,%r8
  8004202599:	00 00 00 
  800420259c:	41 ff d0             	callq  *%r8
			else
				printfmt(putch, putdat, "%s", p);
			break;
  800420259f:	e9 c1 02 00 00       	jmpq   8004202865 <vprintfmt+0x509>
			if (err < 0)
				err = -err;
			if (err >= MAXERROR || (p = error_string[err]) == NULL)
				printfmt(putch, putdat, "error %d", err);
			else
				printfmt(putch, putdat, "%s", p);
  80042025a4:	48 8b 75 a0          	mov    -0x60(%rbp),%rsi
  80042025a8:	48 8b 45 a8          	mov    -0x58(%rbp),%rax
  80042025ac:	4c 89 e1             	mov    %r12,%rcx
  80042025af:	48 ba 0a 9b 20 04 80 	movabs $0x8004209b0a,%rdx
  80042025b6:	00 00 00 
  80042025b9:	48 89 c7             	mov    %rax,%rdi
  80042025bc:	b8 00 00 00 00       	mov    $0x0,%eax
  80042025c1:	49 b8 74 28 20 04 80 	movabs $0x8004202874,%r8
  80042025c8:	00 00 00 
  80042025cb:	41 ff d0             	callq  *%r8
			break;
  80042025ce:	e9 92 02 00 00       	jmpq   8004202865 <vprintfmt+0x509>

			// string
		case 's':
			if ((p = va_arg(aq, char *)) == NULL)
  80042025d3:	8b 45 b8             	mov    -0x48(%rbp),%eax
  80042025d6:	83 f8 30             	cmp    $0x30,%eax
  80042025d9:	73 17                	jae    80042025f2 <vprintfmt+0x296>
  80042025db:	48 8b 55 c8          	mov    -0x38(%rbp),%rdx
  80042025df:	8b 45 b8             	mov    -0x48(%rbp),%eax
  80042025e2:	89 c0                	mov    %eax,%eax
  80042025e4:	48 01 d0             	add    %rdx,%rax
  80042025e7:	8b 55 b8             	mov    -0x48(%rbp),%edx
  80042025ea:	83 c2 08             	add    $0x8,%edx
  80042025ed:	89 55 b8             	mov    %edx,-0x48(%rbp)
  80042025f0:	eb 0f                	jmp    8004202601 <vprintfmt+0x2a5>
  80042025f2:	48 8b 55 c0          	mov    -0x40(%rbp),%rdx
  80042025f6:	48 89 d0             	mov    %rdx,%rax
  80042025f9:	48 83 c2 08          	add    $0x8,%rdx
  80042025fd:	48 89 55 c0          	mov    %rdx,-0x40(%rbp)
  8004202601:	4c 8b 20             	mov    (%rax),%r12
  8004202604:	4d 85 e4             	test   %r12,%r12
  8004202607:	75 0a                	jne    8004202613 <vprintfmt+0x2b7>
				p = "(null)";
  8004202609:	49 bc 0d 9b 20 04 80 	movabs $0x8004209b0d,%r12
  8004202610:	00 00 00 
			if (width > 0 && padc != '-')
  8004202613:	83 7d dc 00          	cmpl   $0x0,-0x24(%rbp)
  8004202617:	7e 3f                	jle    8004202658 <vprintfmt+0x2fc>
  8004202619:	80 7d d3 2d          	cmpb   $0x2d,-0x2d(%rbp)
  800420261d:	74 39                	je     8004202658 <vprintfmt+0x2fc>
				for (width -= strnlen(p, precision); width > 0; width--)
  800420261f:	8b 45 d8             	mov    -0x28(%rbp),%eax
  8004202622:	48 98                	cltq   
  8004202624:	48 89 c6             	mov    %rax,%rsi
  8004202627:	4c 89 e7             	mov    %r12,%rdi
  800420262a:	48 b8 6f 2c 20 04 80 	movabs $0x8004202c6f,%rax
  8004202631:	00 00 00 
  8004202634:	ff d0                	callq  *%rax
  8004202636:	29 45 dc             	sub    %eax,-0x24(%rbp)
  8004202639:	eb 17                	jmp    8004202652 <vprintfmt+0x2f6>
					putch(padc, putdat);
  800420263b:	0f be 55 d3          	movsbl -0x2d(%rbp),%edx
  800420263f:	48 8b 4d a0          	mov    -0x60(%rbp),%rcx
  8004202643:	48 8b 45 a8          	mov    -0x58(%rbp),%rax
  8004202647:	48 89 ce             	mov    %rcx,%rsi
  800420264a:	89 d7                	mov    %edx,%edi
  800420264c:	ff d0                	callq  *%rax
			// string
		case 's':
			if ((p = va_arg(aq, char *)) == NULL)
				p = "(null)";
			if (width > 0 && padc != '-')
				for (width -= strnlen(p, precision); width > 0; width--)
  800420264e:	83 6d dc 01          	subl   $0x1,-0x24(%rbp)
  8004202652:	83 7d dc 00          	cmpl   $0x0,-0x24(%rbp)
  8004202656:	7f e3                	jg     800420263b <vprintfmt+0x2df>
					putch(padc, putdat);
			for (; (ch = *p++) != '\0' && (precision < 0 || --precision >= 0); width--)
  8004202658:	eb 37                	jmp    8004202691 <vprintfmt+0x335>
				if (altflag && (ch < ' ' || ch > '~'))
  800420265a:	83 7d d4 00          	cmpl   $0x0,-0x2c(%rbp)
  800420265e:	74 1e                	je     800420267e <vprintfmt+0x322>
  8004202660:	83 fb 1f             	cmp    $0x1f,%ebx
  8004202663:	7e 05                	jle    800420266a <vprintfmt+0x30e>
  8004202665:	83 fb 7e             	cmp    $0x7e,%ebx
  8004202668:	7e 14                	jle    800420267e <vprintfmt+0x322>
					putch('?', putdat);
  800420266a:	48 8b 55 a0          	mov    -0x60(%rbp),%rdx
  800420266e:	48 8b 45 a8          	mov    -0x58(%rbp),%rax
  8004202672:	48 89 d6             	mov    %rdx,%rsi
  8004202675:	bf 3f 00 00 00       	mov    $0x3f,%edi
  800420267a:	ff d0                	callq  *%rax
  800420267c:	eb 0f                	jmp    800420268d <vprintfmt+0x331>
				else
					putch(ch, putdat);
  800420267e:	48 8b 55 a0          	mov    -0x60(%rbp),%rdx
  8004202682:	48 8b 45 a8          	mov    -0x58(%rbp),%rax
  8004202686:	48 89 d6             	mov    %rdx,%rsi
  8004202689:	89 df                	mov    %ebx,%edi
  800420268b:	ff d0                	callq  *%rax
			if ((p = va_arg(aq, char *)) == NULL)
				p = "(null)";
			if (width > 0 && padc != '-')
				for (width -= strnlen(p, precision); width > 0; width--)
					putch(padc, putdat);
			for (; (ch = *p++) != '\0' && (precision < 0 || --precision >= 0); width--)
  800420268d:	83 6d dc 01          	subl   $0x1,-0x24(%rbp)
  8004202691:	4c 89 e0             	mov    %r12,%rax
  8004202694:	4c 8d 60 01          	lea    0x1(%rax),%r12
  8004202698:	0f b6 00             	movzbl (%rax),%eax
  800420269b:	0f be d8             	movsbl %al,%ebx
  800420269e:	85 db                	test   %ebx,%ebx
  80042026a0:	74 10                	je     80042026b2 <vprintfmt+0x356>
  80042026a2:	83 7d d8 00          	cmpl   $0x0,-0x28(%rbp)
  80042026a6:	78 b2                	js     800420265a <vprintfmt+0x2fe>
  80042026a8:	83 6d d8 01          	subl   $0x1,-0x28(%rbp)
  80042026ac:	83 7d d8 00          	cmpl   $0x0,-0x28(%rbp)
  80042026b0:	79 a8                	jns    800420265a <vprintfmt+0x2fe>
				if (altflag && (ch < ' ' || ch > '~'))
					putch('?', putdat);
				else
					putch(ch, putdat);
			for (; width > 0; width--)
  80042026b2:	eb 16                	jmp    80042026ca <vprintfmt+0x36e>
				putch(' ', putdat);
  80042026b4:	48 8b 55 a0          	mov    -0x60(%rbp),%rdx
  80042026b8:	48 8b 45 a8          	mov    -0x58(%rbp),%rax
  80042026bc:	48 89 d6             	mov    %rdx,%rsi
  80042026bf:	bf 20 00 00 00       	mov    $0x20,%edi
  80042026c4:	ff d0                	callq  *%rax
			for (; (ch = *p++) != '\0' && (precision < 0 || --precision >= 0); width--)
				if (altflag && (ch < ' ' || ch > '~'))
					putch('?', putdat);
				else
					putch(ch, putdat);
			for (; width > 0; width--)
  80042026c6:	83 6d dc 01          	subl   $0x1,-0x24(%rbp)
  80042026ca:	83 7d dc 00          	cmpl   $0x0,-0x24(%rbp)
  80042026ce:	7f e4                	jg     80042026b4 <vprintfmt+0x358>
				putch(' ', putdat);
			break;
  80042026d0:	e9 90 01 00 00       	jmpq   8004202865 <vprintfmt+0x509>

			// (signed) decimal
		case 'd':
			num = getint(&aq, 3);
  80042026d5:	48 8d 45 b8          	lea    -0x48(%rbp),%rax
  80042026d9:	be 03 00 00 00       	mov    $0x3,%esi
  80042026de:	48 89 c7             	mov    %rax,%rdi
  80042026e1:	48 b8 4c 22 20 04 80 	movabs $0x800420224c,%rax
  80042026e8:	00 00 00 
  80042026eb:	ff d0                	callq  *%rax
  80042026ed:	48 89 45 e8          	mov    %rax,-0x18(%rbp)
			if ((long long) num < 0) {
  80042026f1:	48 8b 45 e8          	mov    -0x18(%rbp),%rax
  80042026f5:	48 85 c0             	test   %rax,%rax
  80042026f8:	79 1d                	jns    8004202717 <vprintfmt+0x3bb>
				putch('-', putdat);
  80042026fa:	48 8b 55 a0          	mov    -0x60(%rbp),%rdx
  80042026fe:	48 8b 45 a8          	mov    -0x58(%rbp),%rax
  8004202702:	48 89 d6             	mov    %rdx,%rsi
  8004202705:	bf 2d 00 00 00       	mov    $0x2d,%edi
  800420270a:	ff d0                	callq  *%rax
				num = -(long long) num;
  800420270c:	48 8b 45 e8          	mov    -0x18(%rbp),%rax
  8004202710:	48 f7 d8             	neg    %rax
  8004202713:	48 89 45 e8          	mov    %rax,-0x18(%rbp)
			}
			base = 10;
  8004202717:	c7 45 e4 0a 00 00 00 	movl   $0xa,-0x1c(%rbp)
			goto number;
  800420271e:	e9 d5 00 00 00       	jmpq   80042027f8 <vprintfmt+0x49c>

			// unsigned decimal
		case 'u':
			num = getuint(&aq, 3);
  8004202723:	48 8d 45 b8          	lea    -0x48(%rbp),%rax
  8004202727:	be 03 00 00 00       	mov    $0x3,%esi
  800420272c:	48 89 c7             	mov    %rax,%rdi
  800420272f:	48 b8 3c 21 20 04 80 	movabs $0x800420213c,%rax
  8004202736:	00 00 00 
  8004202739:	ff d0                	callq  *%rax
  800420273b:	48 89 45 e8          	mov    %rax,-0x18(%rbp)
			base = 10;
  800420273f:	c7 45 e4 0a 00 00 00 	movl   $0xa,-0x1c(%rbp)
			goto number;
  8004202746:	e9 ad 00 00 00       	jmpq   80042027f8 <vprintfmt+0x49c>

			// (unsigned) octal
		case 'o':
			// Replace this with your code.
			num = getuint(&aq, 3);
  800420274b:	48 8d 45 b8          	lea    -0x48(%rbp),%rax
  800420274f:	be 03 00 00 00       	mov    $0x3,%esi
  8004202754:	48 89 c7             	mov    %rax,%rdi
  8004202757:	48 b8 3c 21 20 04 80 	movabs $0x800420213c,%rax
  800420275e:	00 00 00 
  8004202761:	ff d0                	callq  *%rax
  8004202763:	48 89 45 e8          	mov    %rax,-0x18(%rbp)
			base = 8;
  8004202767:	c7 45 e4 08 00 00 00 	movl   $0x8,-0x1c(%rbp)
			goto number;
  800420276e:	e9 85 00 00 00       	jmpq   80042027f8 <vprintfmt+0x49c>
			break;

			// pointer
		case 'p':
			putch('0', putdat);
  8004202773:	48 8b 55 a0          	mov    -0x60(%rbp),%rdx
  8004202777:	48 8b 45 a8          	mov    -0x58(%rbp),%rax
  800420277b:	48 89 d6             	mov    %rdx,%rsi
  800420277e:	bf 30 00 00 00       	mov    $0x30,%edi
  8004202783:	ff d0                	callq  *%rax
			putch('x', putdat);
  8004202785:	48 8b 55 a0          	mov    -0x60(%rbp),%rdx
  8004202789:	48 8b 45 a8          	mov    -0x58(%rbp),%rax
  800420278d:	48 89 d6             	mov    %rdx,%rsi
  8004202790:	bf 78 00 00 00       	mov    $0x78,%edi
  8004202795:	ff d0                	callq  *%rax
			num = (unsigned long long)
				(uintptr_t) va_arg(aq, void *);
  8004202797:	8b 45 b8             	mov    -0x48(%rbp),%eax
  800420279a:	83 f8 30             	cmp    $0x30,%eax
  800420279d:	73 17                	jae    80042027b6 <vprintfmt+0x45a>
  800420279f:	48 8b 55 c8          	mov    -0x38(%rbp),%rdx
  80042027a3:	8b 45 b8             	mov    -0x48(%rbp),%eax
  80042027a6:	89 c0                	mov    %eax,%eax
  80042027a8:	48 01 d0             	add    %rdx,%rax
  80042027ab:	8b 55 b8             	mov    -0x48(%rbp),%edx
  80042027ae:	83 c2 08             	add    $0x8,%edx
  80042027b1:	89 55 b8             	mov    %edx,-0x48(%rbp)

			// pointer
		case 'p':
			putch('0', putdat);
			putch('x', putdat);
			num = (unsigned long long)
  80042027b4:	eb 0f                	jmp    80042027c5 <vprintfmt+0x469>
				(uintptr_t) va_arg(aq, void *);
  80042027b6:	48 8b 55 c0          	mov    -0x40(%rbp),%rdx
  80042027ba:	48 89 d0             	mov    %rdx,%rax
  80042027bd:	48 83 c2 08          	add    $0x8,%rdx
  80042027c1:	48 89 55 c0          	mov    %rdx,-0x40(%rbp)
  80042027c5:	48 8b 00             	mov    (%rax),%rax

			// pointer
		case 'p':
			putch('0', putdat);
			putch('x', putdat);
			num = (unsigned long long)
  80042027c8:	48 89 45 e8          	mov    %rax,-0x18(%rbp)
				(uintptr_t) va_arg(aq, void *);
			base = 16;
  80042027cc:	c7 45 e4 10 00 00 00 	movl   $0x10,-0x1c(%rbp)
			goto number;
  80042027d3:	eb 23                	jmp    80042027f8 <vprintfmt+0x49c>

			// (unsigned) hexadecimal
		case 'x':
			num = getuint(&aq, 3);
  80042027d5:	48 8d 45 b8          	lea    -0x48(%rbp),%rax
  80042027d9:	be 03 00 00 00       	mov    $0x3,%esi
  80042027de:	48 89 c7             	mov    %rax,%rdi
  80042027e1:	48 b8 3c 21 20 04 80 	movabs $0x800420213c,%rax
  80042027e8:	00 00 00 
  80042027eb:	ff d0                	callq  *%rax
  80042027ed:	48 89 45 e8          	mov    %rax,-0x18(%rbp)
			base = 16;
  80042027f1:	c7 45 e4 10 00 00 00 	movl   $0x10,-0x1c(%rbp)
		number:
			printnum(putch, putdat, num, base, width, padc);
  80042027f8:	44 0f be 45 d3       	movsbl -0x2d(%rbp),%r8d
  80042027fd:	8b 4d e4             	mov    -0x1c(%rbp),%ecx
  8004202800:	8b 7d dc             	mov    -0x24(%rbp),%edi
  8004202803:	48 8b 55 e8          	mov    -0x18(%rbp),%rdx
  8004202807:	48 8b 75 a0          	mov    -0x60(%rbp),%rsi
  800420280b:	48 8b 45 a8          	mov    -0x58(%rbp),%rax
  800420280f:	45 89 c1             	mov    %r8d,%r9d
  8004202812:	41 89 f8             	mov    %edi,%r8d
  8004202815:	48 89 c7             	mov    %rax,%rdi
  8004202818:	48 b8 81 20 20 04 80 	movabs $0x8004202081,%rax
  800420281f:	00 00 00 
  8004202822:	ff d0                	callq  *%rax
			break;
  8004202824:	eb 3f                	jmp    8004202865 <vprintfmt+0x509>

			// escaped '%' character
		case '%':
			putch(ch, putdat);
  8004202826:	48 8b 55 a0          	mov    -0x60(%rbp),%rdx
  800420282a:	48 8b 45 a8          	mov    -0x58(%rbp),%rax
  800420282e:	48 89 d6             	mov    %rdx,%rsi
  8004202831:	89 df                	mov    %ebx,%edi
  8004202833:	ff d0                	callq  *%rax
			break;
  8004202835:	eb 2e                	jmp    8004202865 <vprintfmt+0x509>

			// unrecognized escape sequence - just print it literally
		default:
			putch('%', putdat);
  8004202837:	48 8b 55 a0          	mov    -0x60(%rbp),%rdx
  800420283b:	48 8b 45 a8          	mov    -0x58(%rbp),%rax
  800420283f:	48 89 d6             	mov    %rdx,%rsi
  8004202842:	bf 25 00 00 00       	mov    $0x25,%edi
  8004202847:	ff d0                	callq  *%rax
			for (fmt--; fmt[-1] != '%'; fmt--)
  8004202849:	48 83 6d 98 01       	subq   $0x1,-0x68(%rbp)
  800420284e:	eb 05                	jmp    8004202855 <vprintfmt+0x4f9>
  8004202850:	48 83 6d 98 01       	subq   $0x1,-0x68(%rbp)
  8004202855:	48 8b 45 98          	mov    -0x68(%rbp),%rax
  8004202859:	48 83 e8 01          	sub    $0x1,%rax
  800420285d:	0f b6 00             	movzbl (%rax),%eax
  8004202860:	3c 25                	cmp    $0x25,%al
  8004202862:	75 ec                	jne    8004202850 <vprintfmt+0x4f4>
				/* do nothing */;
			break;
  8004202864:	90                   	nop
		}
	}
  8004202865:	90                   	nop
	int base, lflag, width, precision, altflag;
	char padc;
	va_list aq;
	va_copy(aq,ap);
	while (1) {
		while ((ch = *(unsigned char *) fmt++) != '%') {
  8004202866:	e9 43 fb ff ff       	jmpq   80042023ae <vprintfmt+0x52>
				/* do nothing */;
			break;
		}
	}
	va_end(aq);
}
  800420286b:	48 83 c4 60          	add    $0x60,%rsp
  800420286f:	5b                   	pop    %rbx
  8004202870:	41 5c                	pop    %r12
  8004202872:	5d                   	pop    %rbp
  8004202873:	c3                   	retq   

0000008004202874 <printfmt>:

void
printfmt(void (*putch)(int, void*), void *putdat, const char *fmt, ...)
{
  8004202874:	55                   	push   %rbp
  8004202875:	48 89 e5             	mov    %rsp,%rbp
  8004202878:	48 81 ec f0 00 00 00 	sub    $0xf0,%rsp
  800420287f:	48 89 bd 28 ff ff ff 	mov    %rdi,-0xd8(%rbp)
  8004202886:	48 89 b5 20 ff ff ff 	mov    %rsi,-0xe0(%rbp)
  800420288d:	48 89 8d 68 ff ff ff 	mov    %rcx,-0x98(%rbp)
  8004202894:	4c 89 85 70 ff ff ff 	mov    %r8,-0x90(%rbp)
  800420289b:	4c 89 8d 78 ff ff ff 	mov    %r9,-0x88(%rbp)
  80042028a2:	84 c0                	test   %al,%al
  80042028a4:	74 20                	je     80042028c6 <printfmt+0x52>
  80042028a6:	0f 29 45 80          	movaps %xmm0,-0x80(%rbp)
  80042028aa:	0f 29 4d 90          	movaps %xmm1,-0x70(%rbp)
  80042028ae:	0f 29 55 a0          	movaps %xmm2,-0x60(%rbp)
  80042028b2:	0f 29 5d b0          	movaps %xmm3,-0x50(%rbp)
  80042028b6:	0f 29 65 c0          	movaps %xmm4,-0x40(%rbp)
  80042028ba:	0f 29 6d d0          	movaps %xmm5,-0x30(%rbp)
  80042028be:	0f 29 75 e0          	movaps %xmm6,-0x20(%rbp)
  80042028c2:	0f 29 7d f0          	movaps %xmm7,-0x10(%rbp)
  80042028c6:	48 89 95 18 ff ff ff 	mov    %rdx,-0xe8(%rbp)
	va_list ap;

	va_start(ap, fmt);
  80042028cd:	c7 85 38 ff ff ff 18 	movl   $0x18,-0xc8(%rbp)
  80042028d4:	00 00 00 
  80042028d7:	c7 85 3c ff ff ff 30 	movl   $0x30,-0xc4(%rbp)
  80042028de:	00 00 00 
  80042028e1:	48 8d 45 10          	lea    0x10(%rbp),%rax
  80042028e5:	48 89 85 40 ff ff ff 	mov    %rax,-0xc0(%rbp)
  80042028ec:	48 8d 85 50 ff ff ff 	lea    -0xb0(%rbp),%rax
  80042028f3:	48 89 85 48 ff ff ff 	mov    %rax,-0xb8(%rbp)
	vprintfmt(putch, putdat, fmt, ap);
  80042028fa:	48 8d 8d 38 ff ff ff 	lea    -0xc8(%rbp),%rcx
  8004202901:	48 8b 95 18 ff ff ff 	mov    -0xe8(%rbp),%rdx
  8004202908:	48 8b b5 20 ff ff ff 	mov    -0xe0(%rbp),%rsi
  800420290f:	48 8b 85 28 ff ff ff 	mov    -0xd8(%rbp),%rax
  8004202916:	48 89 c7             	mov    %rax,%rdi
  8004202919:	48 b8 5c 23 20 04 80 	movabs $0x800420235c,%rax
  8004202920:	00 00 00 
  8004202923:	ff d0                	callq  *%rax
	va_end(ap);
}
  8004202925:	c9                   	leaveq 
  8004202926:	c3                   	retq   

0000008004202927 <sprintputch>:
	int cnt;
};

static void
sprintputch(int ch, struct sprintbuf *b)
{
  8004202927:	55                   	push   %rbp
  8004202928:	48 89 e5             	mov    %rsp,%rbp
  800420292b:	48 83 ec 10          	sub    $0x10,%rsp
  800420292f:	89 7d fc             	mov    %edi,-0x4(%rbp)
  8004202932:	48 89 75 f0          	mov    %rsi,-0x10(%rbp)
	b->cnt++;
  8004202936:	48 8b 45 f0          	mov    -0x10(%rbp),%rax
  800420293a:	8b 40 10             	mov    0x10(%rax),%eax
  800420293d:	8d 50 01             	lea    0x1(%rax),%edx
  8004202940:	48 8b 45 f0          	mov    -0x10(%rbp),%rax
  8004202944:	89 50 10             	mov    %edx,0x10(%rax)
	if (b->buf < b->ebuf)
  8004202947:	48 8b 45 f0          	mov    -0x10(%rbp),%rax
  800420294b:	48 8b 10             	mov    (%rax),%rdx
  800420294e:	48 8b 45 f0          	mov    -0x10(%rbp),%rax
  8004202952:	48 8b 40 08          	mov    0x8(%rax),%rax
  8004202956:	48 39 c2             	cmp    %rax,%rdx
  8004202959:	73 17                	jae    8004202972 <sprintputch+0x4b>
		*b->buf++ = ch;
  800420295b:	48 8b 45 f0          	mov    -0x10(%rbp),%rax
  800420295f:	48 8b 00             	mov    (%rax),%rax
  8004202962:	48 8d 48 01          	lea    0x1(%rax),%rcx
  8004202966:	48 8b 55 f0          	mov    -0x10(%rbp),%rdx
  800420296a:	48 89 0a             	mov    %rcx,(%rdx)
  800420296d:	8b 55 fc             	mov    -0x4(%rbp),%edx
  8004202970:	88 10                	mov    %dl,(%rax)
}
  8004202972:	c9                   	leaveq 
  8004202973:	c3                   	retq   

0000008004202974 <vsnprintf>:

int
vsnprintf(char *buf, int n, const char *fmt, va_list ap)
{
  8004202974:	55                   	push   %rbp
  8004202975:	48 89 e5             	mov    %rsp,%rbp
  8004202978:	48 83 ec 50          	sub    $0x50,%rsp
  800420297c:	48 89 7d c8          	mov    %rdi,-0x38(%rbp)
  8004202980:	89 75 c4             	mov    %esi,-0x3c(%rbp)
  8004202983:	48 89 55 b8          	mov    %rdx,-0x48(%rbp)
  8004202987:	48 89 4d b0          	mov    %rcx,-0x50(%rbp)
	va_list aq;
	va_copy(aq,ap);
  800420298b:	48 8d 45 e8          	lea    -0x18(%rbp),%rax
  800420298f:	48 8b 55 b0          	mov    -0x50(%rbp),%rdx
  8004202993:	48 8b 0a             	mov    (%rdx),%rcx
  8004202996:	48 89 08             	mov    %rcx,(%rax)
  8004202999:	48 8b 4a 08          	mov    0x8(%rdx),%rcx
  800420299d:	48 89 48 08          	mov    %rcx,0x8(%rax)
  80042029a1:	48 8b 52 10          	mov    0x10(%rdx),%rdx
  80042029a5:	48 89 50 10          	mov    %rdx,0x10(%rax)
	struct sprintbuf b = {buf, buf+n-1, 0};
  80042029a9:	48 8b 45 c8          	mov    -0x38(%rbp),%rax
  80042029ad:	48 89 45 d0          	mov    %rax,-0x30(%rbp)
  80042029b1:	8b 45 c4             	mov    -0x3c(%rbp),%eax
  80042029b4:	48 98                	cltq   
  80042029b6:	48 8d 50 ff          	lea    -0x1(%rax),%rdx
  80042029ba:	48 8b 45 c8          	mov    -0x38(%rbp),%rax
  80042029be:	48 01 d0             	add    %rdx,%rax
  80042029c1:	48 89 45 d8          	mov    %rax,-0x28(%rbp)
  80042029c5:	c7 45 e0 00 00 00 00 	movl   $0x0,-0x20(%rbp)

	if (buf == NULL || n < 1)
  80042029cc:	48 83 7d c8 00       	cmpq   $0x0,-0x38(%rbp)
  80042029d1:	74 06                	je     80042029d9 <vsnprintf+0x65>
  80042029d3:	83 7d c4 00          	cmpl   $0x0,-0x3c(%rbp)
  80042029d7:	7f 07                	jg     80042029e0 <vsnprintf+0x6c>
		return -E_INVAL;
  80042029d9:	b8 fd ff ff ff       	mov    $0xfffffffd,%eax
  80042029de:	eb 2f                	jmp    8004202a0f <vsnprintf+0x9b>

	// print the string to the buffer
	vprintfmt((void*)sprintputch, &b, fmt, aq);
  80042029e0:	48 8d 4d e8          	lea    -0x18(%rbp),%rcx
  80042029e4:	48 8b 55 b8          	mov    -0x48(%rbp),%rdx
  80042029e8:	48 8d 45 d0          	lea    -0x30(%rbp),%rax
  80042029ec:	48 89 c6             	mov    %rax,%rsi
  80042029ef:	48 bf 27 29 20 04 80 	movabs $0x8004202927,%rdi
  80042029f6:	00 00 00 
  80042029f9:	48 b8 5c 23 20 04 80 	movabs $0x800420235c,%rax
  8004202a00:	00 00 00 
  8004202a03:	ff d0                	callq  *%rax
	va_end(aq);
	// null terminate the buffer
	*b.buf = '\0';
  8004202a05:	48 8b 45 d0          	mov    -0x30(%rbp),%rax
  8004202a09:	c6 00 00             	movb   $0x0,(%rax)

	return b.cnt;
  8004202a0c:	8b 45 e0             	mov    -0x20(%rbp),%eax
}
  8004202a0f:	c9                   	leaveq 
  8004202a10:	c3                   	retq   

0000008004202a11 <snprintf>:

int
snprintf(char *buf, int n, const char *fmt, ...)
{
  8004202a11:	55                   	push   %rbp
  8004202a12:	48 89 e5             	mov    %rsp,%rbp
  8004202a15:	48 81 ec 10 01 00 00 	sub    $0x110,%rsp
  8004202a1c:	48 89 bd 08 ff ff ff 	mov    %rdi,-0xf8(%rbp)
  8004202a23:	89 b5 04 ff ff ff    	mov    %esi,-0xfc(%rbp)
  8004202a29:	48 89 8d 68 ff ff ff 	mov    %rcx,-0x98(%rbp)
  8004202a30:	4c 89 85 70 ff ff ff 	mov    %r8,-0x90(%rbp)
  8004202a37:	4c 89 8d 78 ff ff ff 	mov    %r9,-0x88(%rbp)
  8004202a3e:	84 c0                	test   %al,%al
  8004202a40:	74 20                	je     8004202a62 <snprintf+0x51>
  8004202a42:	0f 29 45 80          	movaps %xmm0,-0x80(%rbp)
  8004202a46:	0f 29 4d 90          	movaps %xmm1,-0x70(%rbp)
  8004202a4a:	0f 29 55 a0          	movaps %xmm2,-0x60(%rbp)
  8004202a4e:	0f 29 5d b0          	movaps %xmm3,-0x50(%rbp)
  8004202a52:	0f 29 65 c0          	movaps %xmm4,-0x40(%rbp)
  8004202a56:	0f 29 6d d0          	movaps %xmm5,-0x30(%rbp)
  8004202a5a:	0f 29 75 e0          	movaps %xmm6,-0x20(%rbp)
  8004202a5e:	0f 29 7d f0          	movaps %xmm7,-0x10(%rbp)
  8004202a62:	48 89 95 f8 fe ff ff 	mov    %rdx,-0x108(%rbp)
	va_list ap;
	int rc;
	va_list aq;
	va_start(ap, fmt);
  8004202a69:	c7 85 30 ff ff ff 18 	movl   $0x18,-0xd0(%rbp)
  8004202a70:	00 00 00 
  8004202a73:	c7 85 34 ff ff ff 30 	movl   $0x30,-0xcc(%rbp)
  8004202a7a:	00 00 00 
  8004202a7d:	48 8d 45 10          	lea    0x10(%rbp),%rax
  8004202a81:	48 89 85 38 ff ff ff 	mov    %rax,-0xc8(%rbp)
  8004202a88:	48 8d 85 50 ff ff ff 	lea    -0xb0(%rbp),%rax
  8004202a8f:	48 89 85 40 ff ff ff 	mov    %rax,-0xc0(%rbp)
	va_copy(aq,ap);
  8004202a96:	48 8d 85 18 ff ff ff 	lea    -0xe8(%rbp),%rax
  8004202a9d:	48 8d 95 30 ff ff ff 	lea    -0xd0(%rbp),%rdx
  8004202aa4:	48 8b 0a             	mov    (%rdx),%rcx
  8004202aa7:	48 89 08             	mov    %rcx,(%rax)
  8004202aaa:	48 8b 4a 08          	mov    0x8(%rdx),%rcx
  8004202aae:	48 89 48 08          	mov    %rcx,0x8(%rax)
  8004202ab2:	48 8b 52 10          	mov    0x10(%rdx),%rdx
  8004202ab6:	48 89 50 10          	mov    %rdx,0x10(%rax)
	rc = vsnprintf(buf, n, fmt, aq);
  8004202aba:	48 8d 8d 18 ff ff ff 	lea    -0xe8(%rbp),%rcx
  8004202ac1:	48 8b 95 f8 fe ff ff 	mov    -0x108(%rbp),%rdx
  8004202ac8:	8b b5 04 ff ff ff    	mov    -0xfc(%rbp),%esi
  8004202ace:	48 8b 85 08 ff ff ff 	mov    -0xf8(%rbp),%rax
  8004202ad5:	48 89 c7             	mov    %rax,%rdi
  8004202ad8:	48 b8 74 29 20 04 80 	movabs $0x8004202974,%rax
  8004202adf:	00 00 00 
  8004202ae2:	ff d0                	callq  *%rax
  8004202ae4:	89 85 4c ff ff ff    	mov    %eax,-0xb4(%rbp)
	va_end(aq);

	return rc;
  8004202aea:	8b 85 4c ff ff ff    	mov    -0xb4(%rbp),%eax
}
  8004202af0:	c9                   	leaveq 
  8004202af1:	c3                   	retq   

0000008004202af2 <readline>:
#define BUFLEN 1024
static char buf[BUFLEN];

char *
readline(const char *prompt)
{
  8004202af2:	55                   	push   %rbp
  8004202af3:	48 89 e5             	mov    %rsp,%rbp
  8004202af6:	48 83 ec 20          	sub    $0x20,%rsp
  8004202afa:	48 89 7d e8          	mov    %rdi,-0x18(%rbp)
	int i, c, echoing;

	if (prompt != NULL)
  8004202afe:	48 83 7d e8 00       	cmpq   $0x0,-0x18(%rbp)
  8004202b03:	74 22                	je     8004202b27 <readline+0x35>
		cprintf("%s", prompt);
  8004202b05:	48 8b 45 e8          	mov    -0x18(%rbp),%rax
  8004202b09:	48 89 c6             	mov    %rax,%rsi
  8004202b0c:	48 bf c8 9d 20 04 80 	movabs $0x8004209dc8,%rdi
  8004202b13:	00 00 00 
  8004202b16:	b8 00 00 00 00       	mov    $0x0,%eax
  8004202b1b:	48 ba 09 14 20 04 80 	movabs $0x8004201409,%rdx
  8004202b22:	00 00 00 
  8004202b25:	ff d2                	callq  *%rdx

	i = 0;
  8004202b27:	c7 45 fc 00 00 00 00 	movl   $0x0,-0x4(%rbp)
	echoing = iscons(0);
  8004202b2e:	bf 00 00 00 00       	mov    $0x0,%edi
  8004202b33:	48 b8 93 0e 20 04 80 	movabs $0x8004200e93,%rax
  8004202b3a:	00 00 00 
  8004202b3d:	ff d0                	callq  *%rax
  8004202b3f:	89 45 f8             	mov    %eax,-0x8(%rbp)
	while (1) {
		c = getchar();
  8004202b42:	48 b8 71 0e 20 04 80 	movabs $0x8004200e71,%rax
  8004202b49:	00 00 00 
  8004202b4c:	ff d0                	callq  *%rax
  8004202b4e:	89 45 f4             	mov    %eax,-0xc(%rbp)
		if (c < 0) {
  8004202b51:	83 7d f4 00          	cmpl   $0x0,-0xc(%rbp)
  8004202b55:	79 2a                	jns    8004202b81 <readline+0x8f>
			cprintf("read error: %e\n", c);
  8004202b57:	8b 45 f4             	mov    -0xc(%rbp),%eax
  8004202b5a:	89 c6                	mov    %eax,%esi
  8004202b5c:	48 bf cb 9d 20 04 80 	movabs $0x8004209dcb,%rdi
  8004202b63:	00 00 00 
  8004202b66:	b8 00 00 00 00       	mov    $0x0,%eax
  8004202b6b:	48 ba 09 14 20 04 80 	movabs $0x8004201409,%rdx
  8004202b72:	00 00 00 
  8004202b75:	ff d2                	callq  *%rdx
			return NULL;
  8004202b77:	b8 00 00 00 00       	mov    $0x0,%eax
  8004202b7c:	e9 be 00 00 00       	jmpq   8004202c3f <readline+0x14d>
		} else if ((c == '\b' || c == '\x7f') && i > 0) {
  8004202b81:	83 7d f4 08          	cmpl   $0x8,-0xc(%rbp)
  8004202b85:	74 06                	je     8004202b8d <readline+0x9b>
  8004202b87:	83 7d f4 7f          	cmpl   $0x7f,-0xc(%rbp)
  8004202b8b:	75 26                	jne    8004202bb3 <readline+0xc1>
  8004202b8d:	83 7d fc 00          	cmpl   $0x0,-0x4(%rbp)
  8004202b91:	7e 20                	jle    8004202bb3 <readline+0xc1>
			if (echoing)
  8004202b93:	83 7d f8 00          	cmpl   $0x0,-0x8(%rbp)
  8004202b97:	74 11                	je     8004202baa <readline+0xb8>
				cputchar('\b');
  8004202b99:	bf 08 00 00 00       	mov    $0x8,%edi
  8004202b9e:	48 b8 53 0e 20 04 80 	movabs $0x8004200e53,%rax
  8004202ba5:	00 00 00 
  8004202ba8:	ff d0                	callq  *%rax
			i--;
  8004202baa:	83 6d fc 01          	subl   $0x1,-0x4(%rbp)
  8004202bae:	e9 87 00 00 00       	jmpq   8004202c3a <readline+0x148>
		} else if (c >= ' ' && i < BUFLEN-1) {
  8004202bb3:	83 7d f4 1f          	cmpl   $0x1f,-0xc(%rbp)
  8004202bb7:	7e 3f                	jle    8004202bf8 <readline+0x106>
  8004202bb9:	81 7d fc fe 03 00 00 	cmpl   $0x3fe,-0x4(%rbp)
  8004202bc0:	7f 36                	jg     8004202bf8 <readline+0x106>
			if (echoing)
  8004202bc2:	83 7d f8 00          	cmpl   $0x0,-0x8(%rbp)
  8004202bc6:	74 11                	je     8004202bd9 <readline+0xe7>
				cputchar(c);
  8004202bc8:	8b 45 f4             	mov    -0xc(%rbp),%eax
  8004202bcb:	89 c7                	mov    %eax,%edi
  8004202bcd:	48 b8 53 0e 20 04 80 	movabs $0x8004200e53,%rax
  8004202bd4:	00 00 00 
  8004202bd7:	ff d0                	callq  *%rax
			buf[i++] = c;
  8004202bd9:	8b 45 fc             	mov    -0x4(%rbp),%eax
  8004202bdc:	8d 50 01             	lea    0x1(%rax),%edx
  8004202bdf:	89 55 fc             	mov    %edx,-0x4(%rbp)
  8004202be2:	8b 55 f4             	mov    -0xc(%rbp),%edx
  8004202be5:	89 d1                	mov    %edx,%ecx
  8004202be7:	48 ba e0 c8 21 04 80 	movabs $0x800421c8e0,%rdx
  8004202bee:	00 00 00 
  8004202bf1:	48 98                	cltq   
  8004202bf3:	88 0c 02             	mov    %cl,(%rdx,%rax,1)
  8004202bf6:	eb 42                	jmp    8004202c3a <readline+0x148>
		} else if (c == '\n' || c == '\r') {
  8004202bf8:	83 7d f4 0a          	cmpl   $0xa,-0xc(%rbp)
  8004202bfc:	74 06                	je     8004202c04 <readline+0x112>
  8004202bfe:	83 7d f4 0d          	cmpl   $0xd,-0xc(%rbp)
  8004202c02:	75 36                	jne    8004202c3a <readline+0x148>
			if (echoing)
  8004202c04:	83 7d f8 00          	cmpl   $0x0,-0x8(%rbp)
  8004202c08:	74 11                	je     8004202c1b <readline+0x129>
				cputchar('\n');
  8004202c0a:	bf 0a 00 00 00       	mov    $0xa,%edi
  8004202c0f:	48 b8 53 0e 20 04 80 	movabs $0x8004200e53,%rax
  8004202c16:	00 00 00 
  8004202c19:	ff d0                	callq  *%rax
			buf[i] = 0;
  8004202c1b:	48 ba e0 c8 21 04 80 	movabs $0x800421c8e0,%rdx
  8004202c22:	00 00 00 
  8004202c25:	8b 45 fc             	mov    -0x4(%rbp),%eax
  8004202c28:	48 98                	cltq   
  8004202c2a:	c6 04 02 00          	movb   $0x0,(%rdx,%rax,1)
			return buf;
  8004202c2e:	48 b8 e0 c8 21 04 80 	movabs $0x800421c8e0,%rax
  8004202c35:	00 00 00 
  8004202c38:	eb 05                	jmp    8004202c3f <readline+0x14d>
		}
	}
  8004202c3a:	e9 03 ff ff ff       	jmpq   8004202b42 <readline+0x50>
}
  8004202c3f:	c9                   	leaveq 
  8004202c40:	c3                   	retq   

0000008004202c41 <strlen>:
// Primespipe runs 3x faster this way.
#define ASM 1

int
strlen(const char *s)
{
  8004202c41:	55                   	push   %rbp
  8004202c42:	48 89 e5             	mov    %rsp,%rbp
  8004202c45:	48 83 ec 18          	sub    $0x18,%rsp
  8004202c49:	48 89 7d e8          	mov    %rdi,-0x18(%rbp)
	int n;

	for (n = 0; *s != '\0'; s++)
  8004202c4d:	c7 45 fc 00 00 00 00 	movl   $0x0,-0x4(%rbp)
  8004202c54:	eb 09                	jmp    8004202c5f <strlen+0x1e>
		n++;
  8004202c56:	83 45 fc 01          	addl   $0x1,-0x4(%rbp)
int
strlen(const char *s)
{
	int n;

	for (n = 0; *s != '\0'; s++)
  8004202c5a:	48 83 45 e8 01       	addq   $0x1,-0x18(%rbp)
  8004202c5f:	48 8b 45 e8          	mov    -0x18(%rbp),%rax
  8004202c63:	0f b6 00             	movzbl (%rax),%eax
  8004202c66:	84 c0                	test   %al,%al
  8004202c68:	75 ec                	jne    8004202c56 <strlen+0x15>
		n++;
	return n;
  8004202c6a:	8b 45 fc             	mov    -0x4(%rbp),%eax
}
  8004202c6d:	c9                   	leaveq 
  8004202c6e:	c3                   	retq   

0000008004202c6f <strnlen>:

int
strnlen(const char *s, size_t size)
{
  8004202c6f:	55                   	push   %rbp
  8004202c70:	48 89 e5             	mov    %rsp,%rbp
  8004202c73:	48 83 ec 20          	sub    $0x20,%rsp
  8004202c77:	48 89 7d e8          	mov    %rdi,-0x18(%rbp)
  8004202c7b:	48 89 75 e0          	mov    %rsi,-0x20(%rbp)
	int n;

	for (n = 0; size > 0 && *s != '\0'; s++, size--)
  8004202c7f:	c7 45 fc 00 00 00 00 	movl   $0x0,-0x4(%rbp)
  8004202c86:	eb 0e                	jmp    8004202c96 <strnlen+0x27>
		n++;
  8004202c88:	83 45 fc 01          	addl   $0x1,-0x4(%rbp)
int
strnlen(const char *s, size_t size)
{
	int n;

	for (n = 0; size > 0 && *s != '\0'; s++, size--)
  8004202c8c:	48 83 45 e8 01       	addq   $0x1,-0x18(%rbp)
  8004202c91:	48 83 6d e0 01       	subq   $0x1,-0x20(%rbp)
  8004202c96:	48 83 7d e0 00       	cmpq   $0x0,-0x20(%rbp)
  8004202c9b:	74 0b                	je     8004202ca8 <strnlen+0x39>
  8004202c9d:	48 8b 45 e8          	mov    -0x18(%rbp),%rax
  8004202ca1:	0f b6 00             	movzbl (%rax),%eax
  8004202ca4:	84 c0                	test   %al,%al
  8004202ca6:	75 e0                	jne    8004202c88 <strnlen+0x19>
		n++;
	return n;
  8004202ca8:	8b 45 fc             	mov    -0x4(%rbp),%eax
}
  8004202cab:	c9                   	leaveq 
  8004202cac:	c3                   	retq   

0000008004202cad <strcpy>:

char *
strcpy(char *dst, const char *src)
{
  8004202cad:	55                   	push   %rbp
  8004202cae:	48 89 e5             	mov    %rsp,%rbp
  8004202cb1:	48 83 ec 20          	sub    $0x20,%rsp
  8004202cb5:	48 89 7d e8          	mov    %rdi,-0x18(%rbp)
  8004202cb9:	48 89 75 e0          	mov    %rsi,-0x20(%rbp)
	char *ret;

	ret = dst;
  8004202cbd:	48 8b 45 e8          	mov    -0x18(%rbp),%rax
  8004202cc1:	48 89 45 f8          	mov    %rax,-0x8(%rbp)
	while ((*dst++ = *src++) != '\0')
  8004202cc5:	90                   	nop
  8004202cc6:	48 8b 45 e8          	mov    -0x18(%rbp),%rax
  8004202cca:	48 8d 50 01          	lea    0x1(%rax),%rdx
  8004202cce:	48 89 55 e8          	mov    %rdx,-0x18(%rbp)
  8004202cd2:	48 8b 55 e0          	mov    -0x20(%rbp),%rdx
  8004202cd6:	48 8d 4a 01          	lea    0x1(%rdx),%rcx
  8004202cda:	48 89 4d e0          	mov    %rcx,-0x20(%rbp)
  8004202cde:	0f b6 12             	movzbl (%rdx),%edx
  8004202ce1:	88 10                	mov    %dl,(%rax)
  8004202ce3:	0f b6 00             	movzbl (%rax),%eax
  8004202ce6:	84 c0                	test   %al,%al
  8004202ce8:	75 dc                	jne    8004202cc6 <strcpy+0x19>
		/* do nothing */;
	return ret;
  8004202cea:	48 8b 45 f8          	mov    -0x8(%rbp),%rax
}
  8004202cee:	c9                   	leaveq 
  8004202cef:	c3                   	retq   

0000008004202cf0 <strcat>:

char *
strcat(char *dst, const char *src)
{
  8004202cf0:	55                   	push   %rbp
  8004202cf1:	48 89 e5             	mov    %rsp,%rbp
  8004202cf4:	48 83 ec 20          	sub    $0x20,%rsp
  8004202cf8:	48 89 7d e8          	mov    %rdi,-0x18(%rbp)
  8004202cfc:	48 89 75 e0          	mov    %rsi,-0x20(%rbp)
	int len = strlen(dst);
  8004202d00:	48 8b 45 e8          	mov    -0x18(%rbp),%rax
  8004202d04:	48 89 c7             	mov    %rax,%rdi
  8004202d07:	48 b8 41 2c 20 04 80 	movabs $0x8004202c41,%rax
  8004202d0e:	00 00 00 
  8004202d11:	ff d0                	callq  *%rax
  8004202d13:	89 45 fc             	mov    %eax,-0x4(%rbp)
	strcpy(dst + len, src);
  8004202d16:	8b 45 fc             	mov    -0x4(%rbp),%eax
  8004202d19:	48 63 d0             	movslq %eax,%rdx
  8004202d1c:	48 8b 45 e8          	mov    -0x18(%rbp),%rax
  8004202d20:	48 01 c2             	add    %rax,%rdx
  8004202d23:	48 8b 45 e0          	mov    -0x20(%rbp),%rax
  8004202d27:	48 89 c6             	mov    %rax,%rsi
  8004202d2a:	48 89 d7             	mov    %rdx,%rdi
  8004202d2d:	48 b8 ad 2c 20 04 80 	movabs $0x8004202cad,%rax
  8004202d34:	00 00 00 
  8004202d37:	ff d0                	callq  *%rax
	return dst;
  8004202d39:	48 8b 45 e8          	mov    -0x18(%rbp),%rax
}
  8004202d3d:	c9                   	leaveq 
  8004202d3e:	c3                   	retq   

0000008004202d3f <strncpy>:

char *
strncpy(char *dst, const char *src, size_t size) {
  8004202d3f:	55                   	push   %rbp
  8004202d40:	48 89 e5             	mov    %rsp,%rbp
  8004202d43:	48 83 ec 28          	sub    $0x28,%rsp
  8004202d47:	48 89 7d e8          	mov    %rdi,-0x18(%rbp)
  8004202d4b:	48 89 75 e0          	mov    %rsi,-0x20(%rbp)
  8004202d4f:	48 89 55 d8          	mov    %rdx,-0x28(%rbp)
	size_t i;
	char *ret;

	ret = dst;
  8004202d53:	48 8b 45 e8          	mov    -0x18(%rbp),%rax
  8004202d57:	48 89 45 f0          	mov    %rax,-0x10(%rbp)
	for (i = 0; i < size; i++) {
  8004202d5b:	48 c7 45 f8 00 00 00 	movq   $0x0,-0x8(%rbp)
  8004202d62:	00 
  8004202d63:	eb 2a                	jmp    8004202d8f <strncpy+0x50>
		*dst++ = *src;
  8004202d65:	48 8b 45 e8          	mov    -0x18(%rbp),%rax
  8004202d69:	48 8d 50 01          	lea    0x1(%rax),%rdx
  8004202d6d:	48 89 55 e8          	mov    %rdx,-0x18(%rbp)
  8004202d71:	48 8b 55 e0          	mov    -0x20(%rbp),%rdx
  8004202d75:	0f b6 12             	movzbl (%rdx),%edx
  8004202d78:	88 10                	mov    %dl,(%rax)
		// If strlen(src) < size, null-pad 'dst' out to 'size' chars
		if (*src != '\0')
  8004202d7a:	48 8b 45 e0          	mov    -0x20(%rbp),%rax
  8004202d7e:	0f b6 00             	movzbl (%rax),%eax
  8004202d81:	84 c0                	test   %al,%al
  8004202d83:	74 05                	je     8004202d8a <strncpy+0x4b>
			src++;
  8004202d85:	48 83 45 e0 01       	addq   $0x1,-0x20(%rbp)
strncpy(char *dst, const char *src, size_t size) {
	size_t i;
	char *ret;

	ret = dst;
	for (i = 0; i < size; i++) {
  8004202d8a:	48 83 45 f8 01       	addq   $0x1,-0x8(%rbp)
  8004202d8f:	48 8b 45 f8          	mov    -0x8(%rbp),%rax
  8004202d93:	48 3b 45 d8          	cmp    -0x28(%rbp),%rax
  8004202d97:	72 cc                	jb     8004202d65 <strncpy+0x26>
		*dst++ = *src;
		// If strlen(src) < size, null-pad 'dst' out to 'size' chars
		if (*src != '\0')
			src++;
	}
	return ret;
  8004202d99:	48 8b 45 f0          	mov    -0x10(%rbp),%rax
}
  8004202d9d:	c9                   	leaveq 
  8004202d9e:	c3                   	retq   

0000008004202d9f <strlcpy>:

size_t
strlcpy(char *dst, const char *src, size_t size)
{
  8004202d9f:	55                   	push   %rbp
  8004202da0:	48 89 e5             	mov    %rsp,%rbp
  8004202da3:	48 83 ec 28          	sub    $0x28,%rsp
  8004202da7:	48 89 7d e8          	mov    %rdi,-0x18(%rbp)
  8004202dab:	48 89 75 e0          	mov    %rsi,-0x20(%rbp)
  8004202daf:	48 89 55 d8          	mov    %rdx,-0x28(%rbp)
	char *dst_in;

	dst_in = dst;
  8004202db3:	48 8b 45 e8          	mov    -0x18(%rbp),%rax
  8004202db7:	48 89 45 f8          	mov    %rax,-0x8(%rbp)
	if (size > 0) {
  8004202dbb:	48 83 7d d8 00       	cmpq   $0x0,-0x28(%rbp)
  8004202dc0:	74 3d                	je     8004202dff <strlcpy+0x60>
		while (--size > 0 && *src != '\0')
  8004202dc2:	eb 1d                	jmp    8004202de1 <strlcpy+0x42>
			*dst++ = *src++;
  8004202dc4:	48 8b 45 e8          	mov    -0x18(%rbp),%rax
  8004202dc8:	48 8d 50 01          	lea    0x1(%rax),%rdx
  8004202dcc:	48 89 55 e8          	mov    %rdx,-0x18(%rbp)
  8004202dd0:	48 8b 55 e0          	mov    -0x20(%rbp),%rdx
  8004202dd4:	48 8d 4a 01          	lea    0x1(%rdx),%rcx
  8004202dd8:	48 89 4d e0          	mov    %rcx,-0x20(%rbp)
  8004202ddc:	0f b6 12             	movzbl (%rdx),%edx
  8004202ddf:	88 10                	mov    %dl,(%rax)
{
	char *dst_in;

	dst_in = dst;
	if (size > 0) {
		while (--size > 0 && *src != '\0')
  8004202de1:	48 83 6d d8 01       	subq   $0x1,-0x28(%rbp)
  8004202de6:	48 83 7d d8 00       	cmpq   $0x0,-0x28(%rbp)
  8004202deb:	74 0b                	je     8004202df8 <strlcpy+0x59>
  8004202ded:	48 8b 45 e0          	mov    -0x20(%rbp),%rax
  8004202df1:	0f b6 00             	movzbl (%rax),%eax
  8004202df4:	84 c0                	test   %al,%al
  8004202df6:	75 cc                	jne    8004202dc4 <strlcpy+0x25>
			*dst++ = *src++;
		*dst = '\0';
  8004202df8:	48 8b 45 e8          	mov    -0x18(%rbp),%rax
  8004202dfc:	c6 00 00             	movb   $0x0,(%rax)
	}
	return dst - dst_in;
  8004202dff:	48 8b 55 e8          	mov    -0x18(%rbp),%rdx
  8004202e03:	48 8b 45 f8          	mov    -0x8(%rbp),%rax
  8004202e07:	48 29 c2             	sub    %rax,%rdx
  8004202e0a:	48 89 d0             	mov    %rdx,%rax
}
  8004202e0d:	c9                   	leaveq 
  8004202e0e:	c3                   	retq   

0000008004202e0f <strcmp>:

int
strcmp(const char *p, const char *q)
{
  8004202e0f:	55                   	push   %rbp
  8004202e10:	48 89 e5             	mov    %rsp,%rbp
  8004202e13:	48 83 ec 10          	sub    $0x10,%rsp
  8004202e17:	48 89 7d f8          	mov    %rdi,-0x8(%rbp)
  8004202e1b:	48 89 75 f0          	mov    %rsi,-0x10(%rbp)
	while (*p && *p == *q)
  8004202e1f:	eb 0a                	jmp    8004202e2b <strcmp+0x1c>
		p++, q++;
  8004202e21:	48 83 45 f8 01       	addq   $0x1,-0x8(%rbp)
  8004202e26:	48 83 45 f0 01       	addq   $0x1,-0x10(%rbp)
}

int
strcmp(const char *p, const char *q)
{
	while (*p && *p == *q)
  8004202e2b:	48 8b 45 f8          	mov    -0x8(%rbp),%rax
  8004202e2f:	0f b6 00             	movzbl (%rax),%eax
  8004202e32:	84 c0                	test   %al,%al
  8004202e34:	74 12                	je     8004202e48 <strcmp+0x39>
  8004202e36:	48 8b 45 f8          	mov    -0x8(%rbp),%rax
  8004202e3a:	0f b6 10             	movzbl (%rax),%edx
  8004202e3d:	48 8b 45 f0          	mov    -0x10(%rbp),%rax
  8004202e41:	0f b6 00             	movzbl (%rax),%eax
  8004202e44:	38 c2                	cmp    %al,%dl
  8004202e46:	74 d9                	je     8004202e21 <strcmp+0x12>
		p++, q++;
	return (int) ((unsigned char) *p - (unsigned char) *q);
  8004202e48:	48 8b 45 f8          	mov    -0x8(%rbp),%rax
  8004202e4c:	0f b6 00             	movzbl (%rax),%eax
  8004202e4f:	0f b6 d0             	movzbl %al,%edx
  8004202e52:	48 8b 45 f0          	mov    -0x10(%rbp),%rax
  8004202e56:	0f b6 00             	movzbl (%rax),%eax
  8004202e59:	0f b6 c0             	movzbl %al,%eax
  8004202e5c:	29 c2                	sub    %eax,%edx
  8004202e5e:	89 d0                	mov    %edx,%eax
}
  8004202e60:	c9                   	leaveq 
  8004202e61:	c3                   	retq   

0000008004202e62 <strncmp>:

int
strncmp(const char *p, const char *q, size_t n)
{
  8004202e62:	55                   	push   %rbp
  8004202e63:	48 89 e5             	mov    %rsp,%rbp
  8004202e66:	48 83 ec 18          	sub    $0x18,%rsp
  8004202e6a:	48 89 7d f8          	mov    %rdi,-0x8(%rbp)
  8004202e6e:	48 89 75 f0          	mov    %rsi,-0x10(%rbp)
  8004202e72:	48 89 55 e8          	mov    %rdx,-0x18(%rbp)
	while (n > 0 && *p && *p == *q)
  8004202e76:	eb 0f                	jmp    8004202e87 <strncmp+0x25>
		n--, p++, q++;
  8004202e78:	48 83 6d e8 01       	subq   $0x1,-0x18(%rbp)
  8004202e7d:	48 83 45 f8 01       	addq   $0x1,-0x8(%rbp)
  8004202e82:	48 83 45 f0 01       	addq   $0x1,-0x10(%rbp)
}

int
strncmp(const char *p, const char *q, size_t n)
{
	while (n > 0 && *p && *p == *q)
  8004202e87:	48 83 7d e8 00       	cmpq   $0x0,-0x18(%rbp)
  8004202e8c:	74 1d                	je     8004202eab <strncmp+0x49>
  8004202e8e:	48 8b 45 f8          	mov    -0x8(%rbp),%rax
  8004202e92:	0f b6 00             	movzbl (%rax),%eax
  8004202e95:	84 c0                	test   %al,%al
  8004202e97:	74 12                	je     8004202eab <strncmp+0x49>
  8004202e99:	48 8b 45 f8          	mov    -0x8(%rbp),%rax
  8004202e9d:	0f b6 10             	movzbl (%rax),%edx
  8004202ea0:	48 8b 45 f0          	mov    -0x10(%rbp),%rax
  8004202ea4:	0f b6 00             	movzbl (%rax),%eax
  8004202ea7:	38 c2                	cmp    %al,%dl
  8004202ea9:	74 cd                	je     8004202e78 <strncmp+0x16>
		n--, p++, q++;
	if (n == 0)
  8004202eab:	48 83 7d e8 00       	cmpq   $0x0,-0x18(%rbp)
  8004202eb0:	75 07                	jne    8004202eb9 <strncmp+0x57>
		return 0;
  8004202eb2:	b8 00 00 00 00       	mov    $0x0,%eax
  8004202eb7:	eb 18                	jmp    8004202ed1 <strncmp+0x6f>
	else
		return (int) ((unsigned char) *p - (unsigned char) *q);
  8004202eb9:	48 8b 45 f8          	mov    -0x8(%rbp),%rax
  8004202ebd:	0f b6 00             	movzbl (%rax),%eax
  8004202ec0:	0f b6 d0             	movzbl %al,%edx
  8004202ec3:	48 8b 45 f0          	mov    -0x10(%rbp),%rax
  8004202ec7:	0f b6 00             	movzbl (%rax),%eax
  8004202eca:	0f b6 c0             	movzbl %al,%eax
  8004202ecd:	29 c2                	sub    %eax,%edx
  8004202ecf:	89 d0                	mov    %edx,%eax
}
  8004202ed1:	c9                   	leaveq 
  8004202ed2:	c3                   	retq   

0000008004202ed3 <strchr>:

// Return a pointer to the first occurrence of 'c' in 's',
// or a null pointer if the string has no 'c'.
char *
strchr(const char *s, char c)
{
  8004202ed3:	55                   	push   %rbp
  8004202ed4:	48 89 e5             	mov    %rsp,%rbp
  8004202ed7:	48 83 ec 0c          	sub    $0xc,%rsp
  8004202edb:	48 89 7d f8          	mov    %rdi,-0x8(%rbp)
  8004202edf:	89 f0                	mov    %esi,%eax
  8004202ee1:	88 45 f4             	mov    %al,-0xc(%rbp)
	for (; *s; s++)
  8004202ee4:	eb 17                	jmp    8004202efd <strchr+0x2a>
		if (*s == c)
  8004202ee6:	48 8b 45 f8          	mov    -0x8(%rbp),%rax
  8004202eea:	0f b6 00             	movzbl (%rax),%eax
  8004202eed:	3a 45 f4             	cmp    -0xc(%rbp),%al
  8004202ef0:	75 06                	jne    8004202ef8 <strchr+0x25>
			return (char *) s;
  8004202ef2:	48 8b 45 f8          	mov    -0x8(%rbp),%rax
  8004202ef6:	eb 15                	jmp    8004202f0d <strchr+0x3a>
// Return a pointer to the first occurrence of 'c' in 's',
// or a null pointer if the string has no 'c'.
char *
strchr(const char *s, char c)
{
	for (; *s; s++)
  8004202ef8:	48 83 45 f8 01       	addq   $0x1,-0x8(%rbp)
  8004202efd:	48 8b 45 f8          	mov    -0x8(%rbp),%rax
  8004202f01:	0f b6 00             	movzbl (%rax),%eax
  8004202f04:	84 c0                	test   %al,%al
  8004202f06:	75 de                	jne    8004202ee6 <strchr+0x13>
		if (*s == c)
			return (char *) s;
	return 0;
  8004202f08:	b8 00 00 00 00       	mov    $0x0,%eax
}
  8004202f0d:	c9                   	leaveq 
  8004202f0e:	c3                   	retq   

0000008004202f0f <strfind>:

// Return a pointer to the first occurrence of 'c' in 's',
// or a pointer to the string-ending null character if the string has no 'c'.
char *
strfind(const char *s, char c)
{
  8004202f0f:	55                   	push   %rbp
  8004202f10:	48 89 e5             	mov    %rsp,%rbp
  8004202f13:	48 83 ec 0c          	sub    $0xc,%rsp
  8004202f17:	48 89 7d f8          	mov    %rdi,-0x8(%rbp)
  8004202f1b:	89 f0                	mov    %esi,%eax
  8004202f1d:	88 45 f4             	mov    %al,-0xc(%rbp)
	for (; *s; s++)
  8004202f20:	eb 13                	jmp    8004202f35 <strfind+0x26>
		if (*s == c)
  8004202f22:	48 8b 45 f8          	mov    -0x8(%rbp),%rax
  8004202f26:	0f b6 00             	movzbl (%rax),%eax
  8004202f29:	3a 45 f4             	cmp    -0xc(%rbp),%al
  8004202f2c:	75 02                	jne    8004202f30 <strfind+0x21>
			break;
  8004202f2e:	eb 10                	jmp    8004202f40 <strfind+0x31>
// Return a pointer to the first occurrence of 'c' in 's',
// or a pointer to the string-ending null character if the string has no 'c'.
char *
strfind(const char *s, char c)
{
	for (; *s; s++)
  8004202f30:	48 83 45 f8 01       	addq   $0x1,-0x8(%rbp)
  8004202f35:	48 8b 45 f8          	mov    -0x8(%rbp),%rax
  8004202f39:	0f b6 00             	movzbl (%rax),%eax
  8004202f3c:	84 c0                	test   %al,%al
  8004202f3e:	75 e2                	jne    8004202f22 <strfind+0x13>
		if (*s == c)
			break;
	return (char *) s;
  8004202f40:	48 8b 45 f8          	mov    -0x8(%rbp),%rax
}
  8004202f44:	c9                   	leaveq 
  8004202f45:	c3                   	retq   

0000008004202f46 <memset>:

#if ASM
void *
memset(void *v, int c, size_t n)
{
  8004202f46:	55                   	push   %rbp
  8004202f47:	48 89 e5             	mov    %rsp,%rbp
  8004202f4a:	48 83 ec 18          	sub    $0x18,%rsp
  8004202f4e:	48 89 7d f8          	mov    %rdi,-0x8(%rbp)
  8004202f52:	89 75 f4             	mov    %esi,-0xc(%rbp)
  8004202f55:	48 89 55 e8          	mov    %rdx,-0x18(%rbp)
	char *p;

	if (n == 0)
  8004202f59:	48 83 7d e8 00       	cmpq   $0x0,-0x18(%rbp)
  8004202f5e:	75 06                	jne    8004202f66 <memset+0x20>
		return v;
  8004202f60:	48 8b 45 f8          	mov    -0x8(%rbp),%rax
  8004202f64:	eb 69                	jmp    8004202fcf <memset+0x89>
	if ((int64_t)v%4 == 0 && n%4 == 0) {
  8004202f66:	48 8b 45 f8          	mov    -0x8(%rbp),%rax
  8004202f6a:	83 e0 03             	and    $0x3,%eax
  8004202f6d:	48 85 c0             	test   %rax,%rax
  8004202f70:	75 48                	jne    8004202fba <memset+0x74>
  8004202f72:	48 8b 45 e8          	mov    -0x18(%rbp),%rax
  8004202f76:	83 e0 03             	and    $0x3,%eax
  8004202f79:	48 85 c0             	test   %rax,%rax
  8004202f7c:	75 3c                	jne    8004202fba <memset+0x74>
		c &= 0xFF;
  8004202f7e:	81 65 f4 ff 00 00 00 	andl   $0xff,-0xc(%rbp)
		c = (c<<24)|(c<<16)|(c<<8)|c;
  8004202f85:	8b 45 f4             	mov    -0xc(%rbp),%eax
  8004202f88:	c1 e0 18             	shl    $0x18,%eax
  8004202f8b:	89 c2                	mov    %eax,%edx
  8004202f8d:	8b 45 f4             	mov    -0xc(%rbp),%eax
  8004202f90:	c1 e0 10             	shl    $0x10,%eax
  8004202f93:	09 c2                	or     %eax,%edx
  8004202f95:	8b 45 f4             	mov    -0xc(%rbp),%eax
  8004202f98:	c1 e0 08             	shl    $0x8,%eax
  8004202f9b:	09 d0                	or     %edx,%eax
  8004202f9d:	09 45 f4             	or     %eax,-0xc(%rbp)
		asm volatile("cld; rep stosl\n"
			     :: "D" (v), "a" (c), "c" (n/4)
  8004202fa0:	48 8b 45 e8          	mov    -0x18(%rbp),%rax
  8004202fa4:	48 c1 e8 02          	shr    $0x2,%rax
  8004202fa8:	48 89 c1             	mov    %rax,%rcx
	if (n == 0)
		return v;
	if ((int64_t)v%4 == 0 && n%4 == 0) {
		c &= 0xFF;
		c = (c<<24)|(c<<16)|(c<<8)|c;
		asm volatile("cld; rep stosl\n"
  8004202fab:	48 8b 55 f8          	mov    -0x8(%rbp),%rdx
  8004202faf:	8b 45 f4             	mov    -0xc(%rbp),%eax
  8004202fb2:	48 89 d7             	mov    %rdx,%rdi
  8004202fb5:	fc                   	cld    
  8004202fb6:	f3 ab                	rep stos %eax,%es:(%rdi)
  8004202fb8:	eb 11                	jmp    8004202fcb <memset+0x85>
			     :: "D" (v), "a" (c), "c" (n/4)
			     : "cc", "memory");
	} else
		asm volatile("cld; rep stosb\n"
  8004202fba:	48 8b 55 f8          	mov    -0x8(%rbp),%rdx
  8004202fbe:	8b 45 f4             	mov    -0xc(%rbp),%eax
  8004202fc1:	48 8b 4d e8          	mov    -0x18(%rbp),%rcx
  8004202fc5:	48 89 d7             	mov    %rdx,%rdi
  8004202fc8:	fc                   	cld    
  8004202fc9:	f3 aa                	rep stos %al,%es:(%rdi)
			     :: "D" (v), "a" (c), "c" (n)
			     : "cc", "memory");
	return v;
